ARM GAS  C:\Users\giris\AppData\Local\Temp\cciTW9lL.s 			page 1


   1              		.syntax unified
   2              		.cpu cortex-m3
   3              		.fpu softvfp
   4              		.eabi_attribute 20, 1
   5              		.eabi_attribute 21, 1
   6              		.eabi_attribute 23, 3
   7              		.eabi_attribute 24, 1
   8              		.eabi_attribute 25, 1
   9              		.eabi_attribute 26, 1
  10              		.eabi_attribute 30, 1
  11              		.eabi_attribute 34, 1
  12              		.eabi_attribute 18, 4
  13              		.thumb
  14              		.syntax unified
  15              		.file	"statemachine.c"
  16              		.text
  17              	.Ltext0:
  18              		.cfi_sections	.debug_frame
  19              		.section	.text.isr_PushButton_Enable_Interrupt,"ax",%progbits
  20              		.align	2
  21              		.global	isr_PushButton_Enable_Interrupt
  22              		.thumb
  23              		.thumb_func
  24              		.type	isr_PushButton_Enable_Interrupt, %function
  25              	isr_PushButton_Enable_Interrupt:
  26              	.LFB120:
  27              		.file 1 "source\\bsw\\statemachine.c"
   1:source\bsw/statemachine.c **** /**
   2:source\bsw/statemachine.c **** * \file statemachine
   3:source\bsw/statemachine.c **** * \author <author-name>
   4:source\bsw/statemachine.c **** * \date <date>
   5:source\bsw/statemachine.c **** *
   6:source\bsw/statemachine.c **** * \brief <Symbolic File name>
   7:source\bsw/statemachine.c **** *
   8:source\bsw/statemachine.c **** * \copyright Copyright ©2016
   9:source\bsw/statemachine.c **** * Department of electrical engineering and information technology, Hochschule Darmstadt - Universit
  10:source\bsw/statemachine.c **** * Permission to use, copy, modify, and distribute this software and its documentation for education
  11:source\bsw/statemachine.c **** * (unless permitted by h_da) and official h_da projects, is hereby granted for enrolled students of
  12:source\bsw/statemachine.c **** * this paragraph and the following paragraph appear in all copies, modifications, and distributions
  13:source\bsw/statemachine.c **** * Contact Prof.Dr.-Ing. Peter Fromm, peter.fromm@h-da.de, Birkenweg 8 64295 Darmstadt - GERMANY for
  14:source\bsw/statemachine.c **** *
  15:source\bsw/statemachine.c **** * \warning This software is a PROTOTYPE version and is not designed or intended for use in producti
  16:source\bsw/statemachine.c **** * The user represents and warrants that it will NOT use or redistribute the Software for such purpo
  17:source\bsw/statemachine.c **** * This prototype is for research purposes only. This software is provided "AS IS," without a warran
  18:source\bsw/statemachine.c **** */
  19:source\bsw/statemachine.c **** 
  20:source\bsw/statemachine.c **** /*****************************************************************************/
  21:source\bsw/statemachine.c **** /* Include files                                                             */
  22:source\bsw/statemachine.c **** /*****************************************************************************/
  23:source\bsw/statemachine.c **** #include "statemachine.h"
  24:source\bsw/statemachine.c **** #include "stdlib.h"
  25:source\bsw/statemachine.c **** /*****************************************************************************/
  26:source\bsw/statemachine.c **** /* Local pre-processor symbols/macros ('#define')                            */
  27:source\bsw/statemachine.c **** /*****************************************************************************/
  28:source\bsw/statemachine.c **** 
  29:source\bsw/statemachine.c **** /*****************************************************************************/
  30:source\bsw/statemachine.c **** /* Global variable definitions (declared in header file with 'extern')       */
ARM GAS  C:\Users\giris\AppData\Local\Temp\cciTW9lL.s 			page 2


  31:source\bsw/statemachine.c **** /*****************************************************************************/
  32:source\bsw/statemachine.c **** 
  33:source\bsw/statemachine.c **** /*****************************************************************************/
  34:source\bsw/statemachine.c **** /* Local type definitions ('typedef')                                        */
  35:source\bsw/statemachine.c **** /*****************************************************************************/
  36:source\bsw/statemachine.c **** 
  37:source\bsw/statemachine.c **** /*****************************************************************************/
  38:source\bsw/statemachine.c **** /* Local variable definitions ('static')                                     */
  39:source\bsw/statemachine.c **** /*****************************************************************************/
  40:source\bsw/statemachine.c **** 
  41:source\bsw/statemachine.c **** /*****************************************************************************/
  42:source\bsw/statemachine.c **** /* Local function prototypes ('static')                                      */
  43:source\bsw/statemachine.c **** /*****************************************************************************/
  44:source\bsw/statemachine.c **** 
  45:source\bsw/statemachine.c **** /*****************************************************************************/
  46:source\bsw/statemachine.c **** /* Function implementation - global ('extern') and local ('static')          */
  47:source\bsw/statemachine.c **** /*****************************************************************************/
  48:source\bsw/statemachine.c **** 
  49:source\bsw/statemachine.c **** volatile uint8_t push_button_toggle = 0;        // A toggle variable to store the status of isr_Pus
  50:source\bsw/statemachine.c **** 
  51:source\bsw/statemachine.c **** uint8_t sChRx = 0;                              // sChRx is a flag that stores the status of 's' ch
  52:source\bsw/statemachine.c **** uint8_t oChRx = 0;                              // oChRx is a flag that stores the status of 'o' ch
  53:source\bsw/statemachine.c **** char rxDataCh;                                  // rxdataCh receives the character sent from Matlab
  54:source\bsw/statemachine.c **** 
  55:source\bsw/statemachine.c **** uint8_t count = 0;                              // A count variable to increment till 10.
  56:source\bsw/statemachine.c **** 
  57:source\bsw/statemachine.c **** // Creating an object of my enum type for handling the different states.
  58:source\bsw/statemachine.c **** // Initializing the object with IDLE_STATE at first.
  59:source\bsw/statemachine.c **** myStateMachine_t State = IDLE_STATE;
  60:source\bsw/statemachine.c **** 
  61:source\bsw/statemachine.c **** int32 FFT_SamplesArray[2 * 1024] = {0}; // An array which will contain the result of the FFT calcul
  62:source\bsw/statemachine.c **** 
  63:source\bsw/statemachine.c **** /**
  64:source\bsw/statemachine.c ****  * Function that initializes all the Hardware used in the top design.
  65:source\bsw/statemachine.c ****  * @param: None
  66:source\bsw/statemachine.c ****  * @return: None
  67:source\bsw/statemachine.c ****  */
  68:source\bsw/statemachine.c **** void Hardware_Init()
  69:source\bsw/statemachine.c **** {
  70:source\bsw/statemachine.c ****     UART_LOG_Start();
  71:source\bsw/statemachine.c ****     UART_LOG_PutString("UART Started\n");
  72:source\bsw/statemachine.c ****     //WaveDAC_Start();
  73:source\bsw/statemachine.c ****     ADC_DelSig_Start();
  74:source\bsw/statemachine.c ****     ADC_DelSig_StartConvert();
  75:source\bsw/statemachine.c ****     
  76:source\bsw/statemachine.c ****     isr_PushButton_StartEx(isr_PushButton_Enable_Interrupt);
  77:source\bsw/statemachine.c ****     isr_UART_StartEx(isr_UART);
  78:source\bsw/statemachine.c **** }
  79:source\bsw/statemachine.c **** 
  80:source\bsw/statemachine.c **** 
  81:source\bsw/statemachine.c **** /**
  82:source\bsw/statemachine.c ****  * An interrupt function that stores 1 in push button toggle variable if PushButton is pressed.
  83:source\bsw/statemachine.c ****  */
  84:source\bsw/statemachine.c **** CY_ISR(isr_PushButton_Enable_Interrupt)
  85:source\bsw/statemachine.c **** {
  28              		.loc 1 85 0
  29              		.cfi_startproc
ARM GAS  C:\Users\giris\AppData\Local\Temp\cciTW9lL.s 			page 3


  30              		@ args = 0, pretend = 0, frame = 0
  31              		@ frame_needed = 0, uses_anonymous_args = 0
  32 0000 08B5     		push	{r3, lr}
  33              		.cfi_def_cfa_offset 8
  34              		.cfi_offset 3, -8
  35              		.cfi_offset 14, -4
  86:source\bsw/statemachine.c ****     Push_Button_ClearInterrupt();
  36              		.loc 1 86 0
  37 0002 FFF7FEFF 		bl	Push_Button_ClearInterrupt
  38              	.LVL0:
  87:source\bsw/statemachine.c ****     
  88:source\bsw/statemachine.c ****     if(push_button_toggle == 0)
  39              		.loc 1 88 0
  40 0006 044B     		ldr	r3, .L4
  41 0008 1B78     		ldrb	r3, [r3]	@ zero_extendqisi2
  42 000a 13F0FF0F 		tst	r3, #255
  43 000e 02D1     		bne	.L1
  89:source\bsw/statemachine.c ****     {
  90:source\bsw/statemachine.c ****         push_button_toggle = 1;
  44              		.loc 1 90 0
  45 0010 0122     		movs	r2, #1
  46 0012 014B     		ldr	r3, .L4
  47 0014 1A70     		strb	r2, [r3]
  48              	.L1:
  49 0016 08BD     		pop	{r3, pc}
  50              	.L5:
  51              		.align	2
  52              	.L4:
  53 0018 00000000 		.word	.LANCHOR0
  54              		.cfi_endproc
  55              	.LFE120:
  56              		.size	isr_PushButton_Enable_Interrupt, .-isr_PushButton_Enable_Interrupt
  57              		.section	.text.isr_UART,"ax",%progbits
  58              		.align	2
  59              		.global	isr_UART
  60              		.thumb
  61              		.thumb_func
  62              		.type	isr_UART, %function
  63              	isr_UART:
  64              	.LFB121:
  91:source\bsw/statemachine.c ****     }
  92:source\bsw/statemachine.c **** }
  93:source\bsw/statemachine.c **** 
  94:source\bsw/statemachine.c **** 
  95:source\bsw/statemachine.c **** /**
  96:source\bsw/statemachine.c ****  * An interrupt function from UART that stores 's' or 'o' in their respective flag variables,
  97:source\bsw/statemachine.c ****  * when the characters are sent from Matlab or Termite.
  98:source\bsw/statemachine.c ****  */
  99:source\bsw/statemachine.c **** CY_ISR(isr_UART)
 100:source\bsw/statemachine.c **** {
  65              		.loc 1 100 0
  66              		.cfi_startproc
  67              		@ args = 0, pretend = 0, frame = 0
  68              		@ frame_needed = 0, uses_anonymous_args = 0
  69 0000 08B5     		push	{r3, lr}
  70              		.cfi_def_cfa_offset 8
  71              		.cfi_offset 3, -8
ARM GAS  C:\Users\giris\AppData\Local\Temp\cciTW9lL.s 			page 4


  72              		.cfi_offset 14, -4
 101:source\bsw/statemachine.c ****     isr_UART_ClearPending();
  73              		.loc 1 101 0
  74 0002 FFF7FEFF 		bl	isr_UART_ClearPending
  75              	.LVL1:
 102:source\bsw/statemachine.c ****     
 103:source\bsw/statemachine.c ****     rxDataCh = UART_LOG_GetChar();
  76              		.loc 1 103 0
  77 0006 FFF7FEFF 		bl	UART_LOG_GetChar
  78              	.LVL2:
  79 000a 064B     		ldr	r3, .L10
  80 000c 1870     		strb	r0, [r3]
 104:source\bsw/statemachine.c ****     
 105:source\bsw/statemachine.c ****     if(rxDataCh == 's')
  81              		.loc 1 105 0
  82 000e 7328     		cmp	r0, #115
  83 0010 02D1     		bne	.L7
 106:source\bsw/statemachine.c ****     {
 107:source\bsw/statemachine.c ****        //UART_LOG_PutString("S is sent \n");        //Debug statement added while testing UART with
 108:source\bsw/statemachine.c ****         sChRx = 1;
  84              		.loc 1 108 0
  85 0012 0122     		movs	r2, #1
  86 0014 044B     		ldr	r3, .L10+4
  87 0016 5A70     		strb	r2, [r3, #1]
  88              	.L7:
 109:source\bsw/statemachine.c ****     }
 110:source\bsw/statemachine.c ****     if(rxDataCh == 'o')
  89              		.loc 1 110 0
  90 0018 6F28     		cmp	r0, #111
  91 001a 02D1     		bne	.L6
 111:source\bsw/statemachine.c ****     {
 112:source\bsw/statemachine.c ****         oChRx = 1;
  92              		.loc 1 112 0
  93 001c 0122     		movs	r2, #1
  94 001e 024B     		ldr	r3, .L10+4
  95 0020 9A70     		strb	r2, [r3, #2]
  96              	.L6:
  97 0022 08BD     		pop	{r3, pc}
  98              	.L11:
  99              		.align	2
 100              	.L10:
 101 0024 00000000 		.word	rxDataCh
 102 0028 00000000 		.word	.LANCHOR0
 103              		.cfi_endproc
 104              	.LFE121:
 105              		.size	isr_UART, .-isr_UART
 106              		.section	.text.Hardware_Init,"ax",%progbits
 107              		.align	2
 108              		.global	Hardware_Init
 109              		.thumb
 110              		.thumb_func
 111              		.type	Hardware_Init, %function
 112              	Hardware_Init:
 113              	.LFB119:
  69:source\bsw/statemachine.c ****     UART_LOG_Start();
 114              		.loc 1 69 0
 115              		.cfi_startproc
ARM GAS  C:\Users\giris\AppData\Local\Temp\cciTW9lL.s 			page 5


 116              		@ args = 0, pretend = 0, frame = 0
 117              		@ frame_needed = 0, uses_anonymous_args = 0
 118 0000 08B5     		push	{r3, lr}
 119              		.cfi_def_cfa_offset 8
 120              		.cfi_offset 3, -8
 121              		.cfi_offset 14, -4
  70:source\bsw/statemachine.c ****     UART_LOG_PutString("UART Started\n");
 122              		.loc 1 70 0
 123 0002 FFF7FEFF 		bl	UART_LOG_Start
 124              	.LVL3:
  71:source\bsw/statemachine.c ****     //WaveDAC_Start();
 125              		.loc 1 71 0
 126 0006 0748     		ldr	r0, .L14
 127 0008 FFF7FEFF 		bl	UART_LOG_PutString
 128              	.LVL4:
  73:source\bsw/statemachine.c ****     ADC_DelSig_StartConvert();
 129              		.loc 1 73 0
 130 000c FFF7FEFF 		bl	ADC_DelSig_Start
 131              	.LVL5:
  74:source\bsw/statemachine.c ****     
 132              		.loc 1 74 0
 133 0010 FFF7FEFF 		bl	ADC_DelSig_StartConvert
 134              	.LVL6:
  76:source\bsw/statemachine.c ****     isr_UART_StartEx(isr_UART);
 135              		.loc 1 76 0
 136 0014 0448     		ldr	r0, .L14+4
 137 0016 FFF7FEFF 		bl	isr_PushButton_StartEx
 138              	.LVL7:
  77:source\bsw/statemachine.c **** }
 139              		.loc 1 77 0
 140 001a 0448     		ldr	r0, .L14+8
 141 001c FFF7FEFF 		bl	isr_UART_StartEx
 142              	.LVL8:
 143 0020 08BD     		pop	{r3, pc}
 144              	.L15:
 145 0022 00BF     		.align	2
 146              	.L14:
 147 0024 00000000 		.word	.LC0
 148 0028 00000000 		.word	isr_PushButton_Enable_Interrupt
 149 002c 00000000 		.word	isr_UART
 150              		.cfi_endproc
 151              	.LFE119:
 152              		.size	Hardware_Init, .-Hardware_Init
 153              		.section	.text.Sequencing,"ax",%progbits
 154              		.align	2
 155              		.global	Sequencing
 156              		.thumb
 157              		.thumb_func
 158              		.type	Sequencing, %function
 159              	Sequencing:
 160              	.LFB122:
 113:source\bsw/statemachine.c ****     }
 114:source\bsw/statemachine.c **** }
 115:source\bsw/statemachine.c **** 
 116:source\bsw/statemachine.c **** 
 117:source\bsw/statemachine.c **** void Sequencing(uint16_t *SamplingArray)
 118:source\bsw/statemachine.c **** {   
ARM GAS  C:\Users\giris\AppData\Local\Temp\cciTW9lL.s 			page 6


 161              		.loc 1 118 0
 162              		.cfi_startproc
 163              		@ args = 0, pretend = 0, frame = 0
 164              		@ frame_needed = 0, uses_anonymous_args = 0
 165              	.LVL9:
 166 0000 38B5     		push	{r3, r4, r5, lr}
 167              		.cfi_def_cfa_offset 16
 168              		.cfi_offset 3, -16
 169              		.cfi_offset 4, -12
 170              		.cfi_offset 5, -8
 171              		.cfi_offset 14, -4
 172 0002 0546     		mov	r5, r0
 119:source\bsw/statemachine.c ****     switch(State)
 173              		.loc 1 119 0
 174 0004 4F4B     		ldr	r3, .L31
 175 0006 DB78     		ldrb	r3, [r3, #3]	@ zero_extendqisi2
 176 0008 012B     		cmp	r3, #1
 177 000a 1AD0     		beq	.L18
 178 000c 13B1     		cbz	r3, .L19
 179 000e 022B     		cmp	r3, #2
 180 0010 3BD0     		beq	.L20
 181 0012 8AE0     		b	.L29
 182              	.L19:
 120:source\bsw/statemachine.c ****     {
 121:source\bsw/statemachine.c ****         case IDLE_STATE:
 122:source\bsw/statemachine.c ****             
 123:source\bsw/statemachine.c ****             Yellow_LED_Write(1);             // Added as a debug LED, turns on when state is in IDL
 183              		.loc 1 123 0
 184 0014 0120     		movs	r0, #1
 185              	.LVL10:
 186 0016 FFF7FEFF 		bl	Yellow_LED_Write
 187              	.LVL11:
 124:source\bsw/statemachine.c ****             Green_LED_Write(0);
 188              		.loc 1 124 0
 189 001a 0020     		movs	r0, #0
 190 001c FFF7FEFF 		bl	Green_LED_Write
 191              	.LVL12:
 125:source\bsw/statemachine.c ****             Red_LED_Write(0);
 192              		.loc 1 125 0
 193 0020 0020     		movs	r0, #0
 194 0022 FFF7FEFF 		bl	Red_LED_Write
 195              	.LVL13:
 126:source\bsw/statemachine.c ****             
 127:source\bsw/statemachine.c ****             //Initializing count
 128:source\bsw/statemachine.c ****             count =  0;
 196              		.loc 1 128 0
 197 0026 474B     		ldr	r3, .L31
 198 0028 0022     		movs	r2, #0
 199 002a 1A71     		strb	r2, [r3, #4]
 129:source\bsw/statemachine.c ****             
 130:source\bsw/statemachine.c ****             if(push_button_toggle == 1)
 200              		.loc 1 130 0
 201 002c 1B78     		ldrb	r3, [r3]	@ zero_extendqisi2
 202 002e DBB2     		uxtb	r3, r3
 203 0030 012B     		cmp	r3, #1
 204 0032 40F08680 		bne	.L16
 131:source\bsw/statemachine.c ****             {   
ARM GAS  C:\Users\giris\AppData\Local\Temp\cciTW9lL.s 			page 7


 132:source\bsw/statemachine.c ****                 // If push button is pressed then change the state to SAMPLING state.  
 133:source\bsw/statemachine.c ****                 State = SAMPLING_STATE;
 205              		.loc 1 133 0
 206 0036 434B     		ldr	r3, .L31
 207 0038 0122     		movs	r2, #1
 208 003a DA70     		strb	r2, [r3, #3]
 134:source\bsw/statemachine.c ****                 push_button_toggle = 0;
 209              		.loc 1 134 0
 210 003c 0022     		movs	r2, #0
 211 003e 1A70     		strb	r2, [r3]
 212 0040 38BD     		pop	{r3, r4, r5, pc}
 213              	.LVL14:
 214              	.L18:
 135:source\bsw/statemachine.c ****             }
 136:source\bsw/statemachine.c ****         break;
 137:source\bsw/statemachine.c ****         
 138:source\bsw/statemachine.c ****         case SAMPLING_STATE:
 139:source\bsw/statemachine.c **** 
 140:source\bsw/statemachine.c ****             Yellow_LED_Write(0);            //Added as a debug LED; turns off when state changes fr
 215              		.loc 1 140 0
 216 0042 0020     		movs	r0, #0
 217              	.LVL15:
 218 0044 FFF7FEFF 		bl	Yellow_LED_Write
 219              	.LVL16:
 141:source\bsw/statemachine.c ****             Green_LED_Write(1);             
 220              		.loc 1 141 0
 221 0048 0120     		movs	r0, #1
 222 004a FFF7FEFF 		bl	Green_LED_Write
 223              	.LVL17:
 142:source\bsw/statemachine.c ****             Red_LED_Write(0);
 224              		.loc 1 142 0
 225 004e 0020     		movs	r0, #0
 226 0050 FFF7FEFF 		bl	Red_LED_Write
 227              	.LVL18:
 228              	.LBB2:
 143:source\bsw/statemachine.c ****            
 144:source\bsw/statemachine.c ****             for(uint16_t idx = 0; idx < 1024; idx++)
 229              		.loc 1 144 0
 230 0054 0024     		movs	r4, #0
 231 0056 08E0     		b	.L22
 232              	.LVL19:
 233              	.L23:
 145:source\bsw/statemachine.c ****             {
 146:source\bsw/statemachine.c ****                 //Sample the voltage divider output and store it in an Array.
 147:source\bsw/statemachine.c ****                 ADC_DelSig_IsEndConversion(ADC_DelSig_WAIT_FOR_RESULT);
 234              		.loc 1 147 0 discriminator 3
 235 0058 0020     		movs	r0, #0
 236 005a FFF7FEFF 		bl	ADC_DelSig_IsEndConversion
 237              	.LVL20:
 148:source\bsw/statemachine.c ****                 SamplingArray[idx] = (uint16_t)ADC_DelSig_GetResult32();
 238              		.loc 1 148 0 discriminator 3
 239 005e FFF7FEFF 		bl	ADC_DelSig_GetResult32
 240              	.LVL21:
 241 0062 25F81400 		strh	r0, [r5, r4, lsl #1]	@ movhi
 144:source\bsw/statemachine.c ****             {
 242              		.loc 1 144 0 discriminator 3
 243 0066 0134     		adds	r4, r4, #1
ARM GAS  C:\Users\giris\AppData\Local\Temp\cciTW9lL.s 			page 8


 244              	.LVL22:
 245 0068 A4B2     		uxth	r4, r4
 246              	.LVL23:
 247              	.L22:
 144:source\bsw/statemachine.c ****             {
 248              		.loc 1 144 0 is_stmt 0 discriminator 1
 249 006a B4F5806F 		cmp	r4, #1024
 250 006e F3D3     		bcc	.L23
 251              	.LBE2:
 149:source\bsw/statemachine.c ****             }
 150:source\bsw/statemachine.c ****             
 151:source\bsw/statemachine.c ****             //If 's' is recieved from MATLAB, then change the state to UART TRANSFER state.
 152:source\bsw/statemachine.c ****             if(sChRx)
 252              		.loc 1 152 0 is_stmt 1
 253 0070 344B     		ldr	r3, .L31
 254 0072 5B78     		ldrb	r3, [r3, #1]	@ zero_extendqisi2
 255 0074 002B     		cmp	r3, #0
 256 0076 64D0     		beq	.L16
 153:source\bsw/statemachine.c ****             {
 154:source\bsw/statemachine.c ****                 // UART_LOG_PutString("I received S \n");        // Debug statement added when test
 155:source\bsw/statemachine.c ****                 User_LED_Write(1);                              // Added as a debug pin, turns on w
 257              		.loc 1 155 0
 258 0078 0120     		movs	r0, #1
 259 007a FFF7FEFF 		bl	User_LED_Write
 260              	.LVL24:
 156:source\bsw/statemachine.c ****                 State = UART_TRANSFER_STATE;
 261              		.loc 1 156 0
 262 007e 314B     		ldr	r3, .L31
 263 0080 0222     		movs	r2, #2
 264 0082 DA70     		strb	r2, [r3, #3]
 157:source\bsw/statemachine.c ****                 sChRx = 0;
 265              		.loc 1 157 0
 266 0084 0022     		movs	r2, #0
 267 0086 5A70     		strb	r2, [r3, #1]
 268 0088 38BD     		pop	{r3, r4, r5, pc}
 269              	.LVL25:
 270              	.L20:
 158:source\bsw/statemachine.c ****             }
 159:source\bsw/statemachine.c ****             
 160:source\bsw/statemachine.c ****         break;
 161:source\bsw/statemachine.c ****         
 162:source\bsw/statemachine.c ****         case UART_TRANSFER_STATE:
 163:source\bsw/statemachine.c ****             
 164:source\bsw/statemachine.c ****             Green_LED_Write(0);            //Added as a debug LED; turns off when state changes fro
 271              		.loc 1 164 0
 272 008a 0020     		movs	r0, #0
 273              	.LVL26:
 274 008c FFF7FEFF 		bl	Green_LED_Write
 275              	.LVL27:
 165:source\bsw/statemachine.c ****             Red_LED_Write(1);            
 276              		.loc 1 165 0
 277 0090 0120     		movs	r0, #1
 278 0092 FFF7FEFF 		bl	Red_LED_Write
 279              	.LVL28:
 166:source\bsw/statemachine.c ****             Yellow_LED_Write(0);
 280              		.loc 1 166 0
 281 0096 0020     		movs	r0, #0
ARM GAS  C:\Users\giris\AppData\Local\Temp\cciTW9lL.s 			page 9


 282 0098 FFF7FEFF 		bl	Yellow_LED_Write
 283              	.LVL29:
 284              	.LBB3:
 167:source\bsw/statemachine.c ****             
 168:source\bsw/statemachine.c ****             //char buffer[100];
 169:source\bsw/statemachine.c ****             
 170:source\bsw/statemachine.c ****             
 171:source\bsw/statemachine.c ****             for(uint16_t idx = 0; idx < 1024; idx++)
 285              		.loc 1 171 0
 286 009c 0024     		movs	r4, #0
 287 009e 0AE0     		b	.L24
 288              	.LVL30:
 289              	.L25:
 172:source\bsw/statemachine.c ****             {
 173:source\bsw/statemachine.c ****                 //Send the ADC Sampled data to MATLAB
 174:source\bsw/statemachine.c ****                 UART_LOG_PutChar(SamplingArray[idx]);
 290              		.loc 1 174 0 discriminator 3
 291 00a0 15F81400 		ldrb	r0, [r5, r4, lsl #1]	@ zero_extendqisi2
 292 00a4 FFF7FEFF 		bl	UART_LOG_PutChar
 293              	.LVL31:
 175:source\bsw/statemachine.c ****                 UART_LOG_PutChar(SamplingArray[idx]>>8);
 294              		.loc 1 175 0 discriminator 3
 295 00a8 35F81400 		ldrh	r0, [r5, r4, lsl #1]
 296 00ac 000A     		lsrs	r0, r0, #8
 297 00ae FFF7FEFF 		bl	UART_LOG_PutChar
 298              	.LVL32:
 171:source\bsw/statemachine.c ****             {
 299              		.loc 1 171 0 discriminator 3
 300 00b2 0134     		adds	r4, r4, #1
 301              	.LVL33:
 302 00b4 A4B2     		uxth	r4, r4
 303              	.LVL34:
 304              	.L24:
 171:source\bsw/statemachine.c ****             {
 305              		.loc 1 171 0 is_stmt 0 discriminator 1
 306 00b6 B4F5806F 		cmp	r4, #1024
 307 00ba F1D3     		bcc	.L25
 308              	.LBE3:
 176:source\bsw/statemachine.c ****             }
 177:source\bsw/statemachine.c ****             
 178:source\bsw/statemachine.c ****             fft_app(SamplingArray,FFT_SamplesArray,1024);
 309              		.loc 1 178 0 is_stmt 1
 310 00bc 4FF48062 		mov	r2, #1024
 311 00c0 2149     		ldr	r1, .L31+4
 312 00c2 2846     		mov	r0, r5
 313 00c4 FFF7FEFF 		bl	fft_app
 314              	.LVL35:
 315              	.LBB4:
 179:source\bsw/statemachine.c ****             
 180:source\bsw/statemachine.c ****             for(int32 idx = 0; idx < 2048; idx++)
 316              		.loc 1 180 0
 317 00c8 0025     		movs	r5, #0
 318              	.LVL36:
 319 00ca 0FE0     		b	.L26
 320              	.LVL37:
 321              	.L27:
 181:source\bsw/statemachine.c ****             {
ARM GAS  C:\Users\giris\AppData\Local\Temp\cciTW9lL.s 			page 10


 182:source\bsw/statemachine.c ****                 //Send the ADC Sampled data to MATLAB
 183:source\bsw/statemachine.c ****                 UART_LOG_PutChar(FFT_SamplesArray[idx]);
 322              		.loc 1 183 0 discriminator 3
 323 00cc 1D4C     		ldr	r4, .L31
 324 00ce 04EB8504 		add	r4, r4, r5, lsl #2
 325 00d2 207A     		ldrb	r0, [r4, #8]	@ zero_extendqisi2
 326 00d4 FFF7FEFF 		bl	UART_LOG_PutChar
 327              	.LVL38:
 184:source\bsw/statemachine.c ****                 UART_LOG_PutChar(FFT_SamplesArray[idx]>>8);
 328              		.loc 1 184 0 discriminator 3
 329 00d8 607A     		ldrb	r0, [r4, #9]	@ zero_extendqisi2
 330 00da FFF7FEFF 		bl	UART_LOG_PutChar
 331              	.LVL39:
 185:source\bsw/statemachine.c ****                 UART_LOG_PutChar(FFT_SamplesArray[idx]>>16);
 332              		.loc 1 185 0 discriminator 3
 333 00de A07A     		ldrb	r0, [r4, #10]	@ zero_extendqisi2
 334 00e0 FFF7FEFF 		bl	UART_LOG_PutChar
 335              	.LVL40:
 186:source\bsw/statemachine.c ****                 UART_LOG_PutChar(FFT_SamplesArray[idx]>>24);
 336              		.loc 1 186 0 discriminator 3
 337 00e4 E07A     		ldrb	r0, [r4, #11]	@ zero_extendqisi2
 338 00e6 FFF7FEFF 		bl	UART_LOG_PutChar
 339              	.LVL41:
 180:source\bsw/statemachine.c ****             {
 340              		.loc 1 180 0 discriminator 3
 341 00ea 0135     		adds	r5, r5, #1
 342              	.LVL42:
 343              	.L26:
 180:source\bsw/statemachine.c ****             {
 344              		.loc 1 180 0 is_stmt 0 discriminator 1
 345 00ec B5F5006F 		cmp	r5, #2048
 346 00f0 ECDB     		blt	.L27
 347              	.LBE4:
 187:source\bsw/statemachine.c ****             }
 188:source\bsw/statemachine.c ****             
 189:source\bsw/statemachine.c ****            
 190:source\bsw/statemachine.c ****             count++;                        // Increment the count to repeat the above process for 
 348              		.loc 1 190 0 is_stmt 1
 349 00f2 144A     		ldr	r2, .L31
 350 00f4 1379     		ldrb	r3, [r2, #4]	@ zero_extendqisi2
 351 00f6 0133     		adds	r3, r3, #1
 352 00f8 DBB2     		uxtb	r3, r3
 353 00fa 1371     		strb	r3, [r2, #4]
 191:source\bsw/statemachine.c ****             
 192:source\bsw/statemachine.c ****             if((count < 10) && oChRx)
 354              		.loc 1 192 0
 355 00fc 092B     		cmp	r3, #9
 356 00fe 0AD8     		bhi	.L28
 357              		.loc 1 192 0 is_stmt 0 discriminator 1
 358 0100 9278     		ldrb	r2, [r2, #2]	@ zero_extendqisi2
 359 0102 42B1     		cbz	r2, .L28
 193:source\bsw/statemachine.c ****             {  
 194:source\bsw/statemachine.c ****                 User_LED_Write(0);          // Added as a debug pin, turns off when 'o' is received
 360              		.loc 1 194 0 is_stmt 1
 361 0104 0020     		movs	r0, #0
 362 0106 FFF7FEFF 		bl	User_LED_Write
 363              	.LVL43:
ARM GAS  C:\Users\giris\AppData\Local\Temp\cciTW9lL.s 			page 11


 195:source\bsw/statemachine.c ****                 State = SAMPLING_STATE;
 364              		.loc 1 195 0
 365 010a 0E4B     		ldr	r3, .L31
 366 010c 0122     		movs	r2, #1
 367 010e DA70     		strb	r2, [r3, #3]
 196:source\bsw/statemachine.c ****                 oChRx = 0;
 368              		.loc 1 196 0
 369 0110 0022     		movs	r2, #0
 370 0112 9A70     		strb	r2, [r3, #2]
 371 0114 38BD     		pop	{r3, r4, r5, pc}
 372              	.LVL44:
 373              	.L28:
 197:source\bsw/statemachine.c ****             }
 198:source\bsw/statemachine.c ****             else if((count == 10) && oChRx)
 374              		.loc 1 198 0
 375 0116 0A2B     		cmp	r3, #10
 376 0118 13D1     		bne	.L16
 377              		.loc 1 198 0 is_stmt 0 discriminator 1
 378 011a 0A4B     		ldr	r3, .L31
 379 011c 9B78     		ldrb	r3, [r3, #2]	@ zero_extendqisi2
 380 011e 83B1     		cbz	r3, .L16
 199:source\bsw/statemachine.c ****             {
 200:source\bsw/statemachine.c ****                 State = IDLE_STATE;  
 381              		.loc 1 200 0 is_stmt 1
 382 0120 084B     		ldr	r3, .L31
 383 0122 0022     		movs	r2, #0
 384 0124 DA70     		strb	r2, [r3, #3]
 201:source\bsw/statemachine.c ****                 oChRx = 0;
 385              		.loc 1 201 0
 386 0126 9A70     		strb	r2, [r3, #2]
 387 0128 38BD     		pop	{r3, r4, r5, pc}
 388              	.LVL45:
 389              	.L29:
 202:source\bsw/statemachine.c ****             }
 203:source\bsw/statemachine.c ****         break;
 204:source\bsw/statemachine.c ****             
 205:source\bsw/statemachine.c ****         default:
 206:source\bsw/statemachine.c ****             State = IDLE_STATE; 
 390              		.loc 1 206 0
 391 012a 0024     		movs	r4, #0
 392 012c 054B     		ldr	r3, .L31
 393 012e DC70     		strb	r4, [r3, #3]
 207:source\bsw/statemachine.c ****             
 208:source\bsw/statemachine.c ****             Yellow_LED_Write(0);           
 394              		.loc 1 208 0
 395 0130 2046     		mov	r0, r4
 396              	.LVL46:
 397 0132 FFF7FEFF 		bl	Yellow_LED_Write
 398              	.LVL47:
 209:source\bsw/statemachine.c ****             Green_LED_Write(0);
 399              		.loc 1 209 0
 400 0136 2046     		mov	r0, r4
 401 0138 FFF7FEFF 		bl	Green_LED_Write
 402              	.LVL48:
 210:source\bsw/statemachine.c ****             Red_LED_Write(0);
 403              		.loc 1 210 0
 404 013c 2046     		mov	r0, r4
ARM GAS  C:\Users\giris\AppData\Local\Temp\cciTW9lL.s 			page 12


 405 013e FFF7FEFF 		bl	Red_LED_Write
 406              	.LVL49:
 407              	.L16:
 408 0142 38BD     		pop	{r3, r4, r5, pc}
 409              	.L32:
 410              		.align	2
 411              	.L31:
 412 0144 00000000 		.word	.LANCHOR0
 413 0148 08000000 		.word	.LANCHOR0+8
 414              		.cfi_endproc
 415              	.LFE122:
 416              		.size	Sequencing, .-Sequencing
 417              		.global	FFT_SamplesArray
 418              		.global	State
 419              		.global	count
 420              		.comm	rxDataCh,1,1
 421              		.global	oChRx
 422              		.global	sChRx
 423              		.global	push_button_toggle
 424              		.section	.rodata.str1.4,"aMS",%progbits,1
 425              		.align	2
 426              	.LC0:
 427 0000 55415254 		.ascii	"UART Started\012\000"
 427      20537461 
 427      72746564 
 427      0A00
 428              		.bss
 429              		.align	2
 430              		.set	.LANCHOR0,. + 0
 431              		.type	push_button_toggle, %object
 432              		.size	push_button_toggle, 1
 433              	push_button_toggle:
 434 0000 00       		.space	1
 435              		.type	sChRx, %object
 436              		.size	sChRx, 1
 437              	sChRx:
 438 0001 00       		.space	1
 439              		.type	oChRx, %object
 440              		.size	oChRx, 1
 441              	oChRx:
 442 0002 00       		.space	1
 443              		.type	State, %object
 444              		.size	State, 1
 445              	State:
 446 0003 00       		.space	1
 447              		.type	count, %object
 448              		.size	count, 1
 449              	count:
 450 0004 00       		.space	1
 451 0005 000000   		.space	3
 452              		.type	FFT_SamplesArray, %object
 453              		.size	FFT_SamplesArray, 8192
 454              	FFT_SamplesArray:
 455 0008 00000000 		.space	8192
 455      00000000 
 455      00000000 
 455      00000000 
ARM GAS  C:\Users\giris\AppData\Local\Temp\cciTW9lL.s 			page 13


 455      00000000 
 456              		.text
 457              	.Letext0:
 458              		.file 2 "c:\\program files (x86)\\cypress\\psoc creator\\4.4\\psoc creator\\import\\gnu\\arm\\5.4.
 459              		.file 3 "c:\\program files (x86)\\cypress\\psoc creator\\4.4\\psoc creator\\import\\gnu\\arm\\5.4.
 460              		.file 4 "Generated_Source\\PSoC5/cytypes.h"
 461              		.file 5 "source\\bsw\\statemachine.h"
 462              		.file 6 "Generated_Source\\PSoC5/core_cm3.h"
 463              		.file 7 "Generated_Source\\PSoC5/Push_Button.h"
 464              		.file 8 "Generated_Source\\PSoC5/isr_UART.h"
 465              		.file 9 "Generated_Source\\PSoC5/UART_LOG.h"
 466              		.file 10 "Generated_Source\\PSoC5/ADC_DelSig.h"
 467              		.file 11 "Generated_Source\\PSoC5/isr_PushButton.h"
 468              		.file 12 "Generated_Source\\PSoC5/Yellow_LED.h"
 469              		.file 13 "Generated_Source\\PSoC5/Green_LED.h"
 470              		.file 14 "Generated_Source\\PSoC5/Red_LED.h"
 471              		.file 15 "Generated_Source\\PSoC5/User_LED.h"
 472              		.file 16 ".\\source\\asw\\fft_application/fft_application.h"