ARM GAS  C:\Users\giris\AppData\Local\Temp\ccy6rokf.s 			page 1


   1              		.syntax unified
   2              		.cpu cortex-m3
   3              		.fpu softvfp
   4              		.eabi_attribute 20, 1
   5              		.eabi_attribute 21, 1
   6              		.eabi_attribute 23, 3
   7              		.eabi_attribute 24, 1
   8              		.eabi_attribute 25, 1
   9              		.eabi_attribute 26, 1
  10              		.eabi_attribute 30, 1
  11              		.eabi_attribute 34, 1
  12              		.eabi_attribute 18, 4
  13              		.thumb
  14              		.syntax unified
  15              		.file	"isr_pushbutton.c"
  16              		.text
  17              	.Ltext0:
  18              		.cfi_sections	.debug_frame
  19              		.section	.text.isr_pushbutton_Interrupt,"ax",%progbits
  20              		.align	2
  21              		.global	isr_pushbutton_Interrupt
  22              		.thumb
  23              		.thumb_func
  24              		.type	isr_pushbutton_Interrupt, %function
  25              	isr_pushbutton_Interrupt:
  26              	.LFB66:
  27              		.file 1 "Generated_Source\\PSoC5\\isr_pushbutton.c"
   1:Generated_Source\PSoC5/isr_pushbutton.c **** /*******************************************************************************
   2:Generated_Source\PSoC5/isr_pushbutton.c **** * File Name: isr_pushbutton.c  
   3:Generated_Source\PSoC5/isr_pushbutton.c **** * Version 1.70
   4:Generated_Source\PSoC5/isr_pushbutton.c **** *
   5:Generated_Source\PSoC5/isr_pushbutton.c **** *  Description:
   6:Generated_Source\PSoC5/isr_pushbutton.c **** *   API for controlling the state of an interrupt.
   7:Generated_Source\PSoC5/isr_pushbutton.c **** *
   8:Generated_Source\PSoC5/isr_pushbutton.c **** *
   9:Generated_Source\PSoC5/isr_pushbutton.c **** *  Note:
  10:Generated_Source\PSoC5/isr_pushbutton.c **** *
  11:Generated_Source\PSoC5/isr_pushbutton.c **** ********************************************************************************
  12:Generated_Source\PSoC5/isr_pushbutton.c **** * Copyright 2008-2015, Cypress Semiconductor Corporation.  All rights reserved.
  13:Generated_Source\PSoC5/isr_pushbutton.c **** * You may use this file only in accordance with the license, terms, conditions, 
  14:Generated_Source\PSoC5/isr_pushbutton.c **** * disclaimers, and limitations in the end user license agreement accompanying 
  15:Generated_Source\PSoC5/isr_pushbutton.c **** * the software package with which this file was provided.
  16:Generated_Source\PSoC5/isr_pushbutton.c **** *******************************************************************************/
  17:Generated_Source\PSoC5/isr_pushbutton.c **** 
  18:Generated_Source\PSoC5/isr_pushbutton.c **** 
  19:Generated_Source\PSoC5/isr_pushbutton.c **** #include <cydevice_trm.h>
  20:Generated_Source\PSoC5/isr_pushbutton.c **** #include <CyLib.h>
  21:Generated_Source\PSoC5/isr_pushbutton.c **** #include <isr_pushbutton.h>
  22:Generated_Source\PSoC5/isr_pushbutton.c **** #include "cyapicallbacks.h"
  23:Generated_Source\PSoC5/isr_pushbutton.c **** 
  24:Generated_Source\PSoC5/isr_pushbutton.c **** #if !defined(isr_pushbutton__REMOVED) /* Check for removal by optimization */
  25:Generated_Source\PSoC5/isr_pushbutton.c **** 
  26:Generated_Source\PSoC5/isr_pushbutton.c **** /*******************************************************************************
  27:Generated_Source\PSoC5/isr_pushbutton.c **** *  Place your includes, defines and code here 
  28:Generated_Source\PSoC5/isr_pushbutton.c **** ********************************************************************************/
  29:Generated_Source\PSoC5/isr_pushbutton.c **** /* `#START isr_pushbutton_intc` */
  30:Generated_Source\PSoC5/isr_pushbutton.c **** #include "common.h"
ARM GAS  C:\Users\giris\AppData\Local\Temp\ccy6rokf.s 			page 2


  31:Generated_Source\PSoC5/isr_pushbutton.c ****     uint8_t flagPB = 0;
  32:Generated_Source\PSoC5/isr_pushbutton.c **** /* `#END` */
  33:Generated_Source\PSoC5/isr_pushbutton.c **** 
  34:Generated_Source\PSoC5/isr_pushbutton.c **** #ifndef CYINT_IRQ_BASE
  35:Generated_Source\PSoC5/isr_pushbutton.c **** #define CYINT_IRQ_BASE      16
  36:Generated_Source\PSoC5/isr_pushbutton.c **** #endif /* CYINT_IRQ_BASE */
  37:Generated_Source\PSoC5/isr_pushbutton.c **** #ifndef CYINT_VECT_TABLE
  38:Generated_Source\PSoC5/isr_pushbutton.c **** #define CYINT_VECT_TABLE    ((cyisraddress **) CYREG_NVIC_VECT_OFFSET)
  39:Generated_Source\PSoC5/isr_pushbutton.c **** #endif /* CYINT_VECT_TABLE */
  40:Generated_Source\PSoC5/isr_pushbutton.c **** 
  41:Generated_Source\PSoC5/isr_pushbutton.c **** /* Declared in startup, used to set unused interrupts to. */
  42:Generated_Source\PSoC5/isr_pushbutton.c **** CY_ISR_PROTO(IntDefaultHandler);
  43:Generated_Source\PSoC5/isr_pushbutton.c **** 
  44:Generated_Source\PSoC5/isr_pushbutton.c **** 
  45:Generated_Source\PSoC5/isr_pushbutton.c **** /*******************************************************************************
  46:Generated_Source\PSoC5/isr_pushbutton.c **** * Function Name: isr_pushbutton_Start
  47:Generated_Source\PSoC5/isr_pushbutton.c **** ********************************************************************************
  48:Generated_Source\PSoC5/isr_pushbutton.c **** *
  49:Generated_Source\PSoC5/isr_pushbutton.c **** * Summary:
  50:Generated_Source\PSoC5/isr_pushbutton.c **** *  Set up the interrupt and enable it. This function disables the interrupt, 
  51:Generated_Source\PSoC5/isr_pushbutton.c **** *  sets the default interrupt vector, sets the priority from the value in the
  52:Generated_Source\PSoC5/isr_pushbutton.c **** *  Design Wide Resources Interrupt Editor, then enables the interrupt to the 
  53:Generated_Source\PSoC5/isr_pushbutton.c **** *  interrupt controller.
  54:Generated_Source\PSoC5/isr_pushbutton.c **** *
  55:Generated_Source\PSoC5/isr_pushbutton.c **** * Parameters:  
  56:Generated_Source\PSoC5/isr_pushbutton.c **** *   None
  57:Generated_Source\PSoC5/isr_pushbutton.c **** *
  58:Generated_Source\PSoC5/isr_pushbutton.c **** * Return:
  59:Generated_Source\PSoC5/isr_pushbutton.c **** *   None
  60:Generated_Source\PSoC5/isr_pushbutton.c **** *
  61:Generated_Source\PSoC5/isr_pushbutton.c **** *******************************************************************************/
  62:Generated_Source\PSoC5/isr_pushbutton.c **** void isr_pushbutton_Start(void)
  63:Generated_Source\PSoC5/isr_pushbutton.c **** {
  64:Generated_Source\PSoC5/isr_pushbutton.c ****     /* For all we know the interrupt is active. */
  65:Generated_Source\PSoC5/isr_pushbutton.c ****     isr_pushbutton_Disable();
  66:Generated_Source\PSoC5/isr_pushbutton.c **** 
  67:Generated_Source\PSoC5/isr_pushbutton.c ****     /* Set the ISR to point to the isr_pushbutton Interrupt. */
  68:Generated_Source\PSoC5/isr_pushbutton.c ****     isr_pushbutton_SetVector(&isr_pushbutton_Interrupt);
  69:Generated_Source\PSoC5/isr_pushbutton.c **** 
  70:Generated_Source\PSoC5/isr_pushbutton.c ****     /* Set the priority. */
  71:Generated_Source\PSoC5/isr_pushbutton.c ****     isr_pushbutton_SetPriority((uint8)isr_pushbutton_INTC_PRIOR_NUMBER);
  72:Generated_Source\PSoC5/isr_pushbutton.c **** 
  73:Generated_Source\PSoC5/isr_pushbutton.c ****     /* Enable it. */
  74:Generated_Source\PSoC5/isr_pushbutton.c ****     isr_pushbutton_Enable();
  75:Generated_Source\PSoC5/isr_pushbutton.c **** }
  76:Generated_Source\PSoC5/isr_pushbutton.c **** 
  77:Generated_Source\PSoC5/isr_pushbutton.c **** 
  78:Generated_Source\PSoC5/isr_pushbutton.c **** /*******************************************************************************
  79:Generated_Source\PSoC5/isr_pushbutton.c **** * Function Name: isr_pushbutton_StartEx
  80:Generated_Source\PSoC5/isr_pushbutton.c **** ********************************************************************************
  81:Generated_Source\PSoC5/isr_pushbutton.c **** *
  82:Generated_Source\PSoC5/isr_pushbutton.c **** * Summary:
  83:Generated_Source\PSoC5/isr_pushbutton.c **** *  Sets up the interrupt and enables it. This function disables the interrupt,
  84:Generated_Source\PSoC5/isr_pushbutton.c **** *  sets the interrupt vector based on the address passed in, sets the priority 
  85:Generated_Source\PSoC5/isr_pushbutton.c **** *  from the value in the Design Wide Resources Interrupt Editor, then enables 
  86:Generated_Source\PSoC5/isr_pushbutton.c **** *  the interrupt to the interrupt controller.
  87:Generated_Source\PSoC5/isr_pushbutton.c **** *  
ARM GAS  C:\Users\giris\AppData\Local\Temp\ccy6rokf.s 			page 3


  88:Generated_Source\PSoC5/isr_pushbutton.c **** *  When defining ISR functions, the CY_ISR and CY_ISR_PROTO macros should be 
  89:Generated_Source\PSoC5/isr_pushbutton.c **** *  used to provide consistent definition across compilers:
  90:Generated_Source\PSoC5/isr_pushbutton.c **** *  
  91:Generated_Source\PSoC5/isr_pushbutton.c **** *  Function definition example:
  92:Generated_Source\PSoC5/isr_pushbutton.c **** *   CY_ISR(MyISR)
  93:Generated_Source\PSoC5/isr_pushbutton.c **** *   {
  94:Generated_Source\PSoC5/isr_pushbutton.c **** *   }
  95:Generated_Source\PSoC5/isr_pushbutton.c **** *   Function prototype example:
  96:Generated_Source\PSoC5/isr_pushbutton.c **** *   CY_ISR_PROTO(MyISR);
  97:Generated_Source\PSoC5/isr_pushbutton.c **** *
  98:Generated_Source\PSoC5/isr_pushbutton.c **** * Parameters:  
  99:Generated_Source\PSoC5/isr_pushbutton.c **** *   address: Address of the ISR to set in the interrupt vector table.
 100:Generated_Source\PSoC5/isr_pushbutton.c **** *
 101:Generated_Source\PSoC5/isr_pushbutton.c **** * Return:
 102:Generated_Source\PSoC5/isr_pushbutton.c **** *   None
 103:Generated_Source\PSoC5/isr_pushbutton.c **** *
 104:Generated_Source\PSoC5/isr_pushbutton.c **** *******************************************************************************/
 105:Generated_Source\PSoC5/isr_pushbutton.c **** void isr_pushbutton_StartEx(cyisraddress address)
 106:Generated_Source\PSoC5/isr_pushbutton.c **** {
 107:Generated_Source\PSoC5/isr_pushbutton.c ****     /* For all we know the interrupt is active. */
 108:Generated_Source\PSoC5/isr_pushbutton.c ****     isr_pushbutton_Disable();
 109:Generated_Source\PSoC5/isr_pushbutton.c **** 
 110:Generated_Source\PSoC5/isr_pushbutton.c ****     /* Set the ISR to point to the isr_pushbutton Interrupt. */
 111:Generated_Source\PSoC5/isr_pushbutton.c ****     isr_pushbutton_SetVector(address);
 112:Generated_Source\PSoC5/isr_pushbutton.c **** 
 113:Generated_Source\PSoC5/isr_pushbutton.c ****     /* Set the priority. */
 114:Generated_Source\PSoC5/isr_pushbutton.c ****     isr_pushbutton_SetPriority((uint8)isr_pushbutton_INTC_PRIOR_NUMBER);
 115:Generated_Source\PSoC5/isr_pushbutton.c **** 
 116:Generated_Source\PSoC5/isr_pushbutton.c ****     /* Enable it. */
 117:Generated_Source\PSoC5/isr_pushbutton.c ****     isr_pushbutton_Enable();
 118:Generated_Source\PSoC5/isr_pushbutton.c **** }
 119:Generated_Source\PSoC5/isr_pushbutton.c **** 
 120:Generated_Source\PSoC5/isr_pushbutton.c **** 
 121:Generated_Source\PSoC5/isr_pushbutton.c **** /*******************************************************************************
 122:Generated_Source\PSoC5/isr_pushbutton.c **** * Function Name: isr_pushbutton_Stop
 123:Generated_Source\PSoC5/isr_pushbutton.c **** ********************************************************************************
 124:Generated_Source\PSoC5/isr_pushbutton.c **** *
 125:Generated_Source\PSoC5/isr_pushbutton.c **** * Summary:
 126:Generated_Source\PSoC5/isr_pushbutton.c **** *   Disables and removes the interrupt.
 127:Generated_Source\PSoC5/isr_pushbutton.c **** *
 128:Generated_Source\PSoC5/isr_pushbutton.c **** * Parameters:  
 129:Generated_Source\PSoC5/isr_pushbutton.c **** *   None
 130:Generated_Source\PSoC5/isr_pushbutton.c **** *
 131:Generated_Source\PSoC5/isr_pushbutton.c **** * Return:
 132:Generated_Source\PSoC5/isr_pushbutton.c **** *   None
 133:Generated_Source\PSoC5/isr_pushbutton.c **** *
 134:Generated_Source\PSoC5/isr_pushbutton.c **** *******************************************************************************/
 135:Generated_Source\PSoC5/isr_pushbutton.c **** void isr_pushbutton_Stop(void)
 136:Generated_Source\PSoC5/isr_pushbutton.c **** {
 137:Generated_Source\PSoC5/isr_pushbutton.c ****     /* Disable this interrupt. */
 138:Generated_Source\PSoC5/isr_pushbutton.c ****     isr_pushbutton_Disable();
 139:Generated_Source\PSoC5/isr_pushbutton.c **** 
 140:Generated_Source\PSoC5/isr_pushbutton.c ****     /* Set the ISR to point to the passive one. */
 141:Generated_Source\PSoC5/isr_pushbutton.c ****     isr_pushbutton_SetVector(&IntDefaultHandler);
 142:Generated_Source\PSoC5/isr_pushbutton.c **** }
 143:Generated_Source\PSoC5/isr_pushbutton.c **** 
 144:Generated_Source\PSoC5/isr_pushbutton.c **** 
ARM GAS  C:\Users\giris\AppData\Local\Temp\ccy6rokf.s 			page 4


 145:Generated_Source\PSoC5/isr_pushbutton.c **** /*******************************************************************************
 146:Generated_Source\PSoC5/isr_pushbutton.c **** * Function Name: isr_pushbutton_Interrupt
 147:Generated_Source\PSoC5/isr_pushbutton.c **** ********************************************************************************
 148:Generated_Source\PSoC5/isr_pushbutton.c **** *
 149:Generated_Source\PSoC5/isr_pushbutton.c **** * Summary:
 150:Generated_Source\PSoC5/isr_pushbutton.c **** *   The default Interrupt Service Routine for isr_pushbutton.
 151:Generated_Source\PSoC5/isr_pushbutton.c **** *
 152:Generated_Source\PSoC5/isr_pushbutton.c **** *   Add custom code between the coments to keep the next version of this file
 153:Generated_Source\PSoC5/isr_pushbutton.c **** *   from over writting your code.
 154:Generated_Source\PSoC5/isr_pushbutton.c **** *
 155:Generated_Source\PSoC5/isr_pushbutton.c **** * Parameters:  
 156:Generated_Source\PSoC5/isr_pushbutton.c **** *
 157:Generated_Source\PSoC5/isr_pushbutton.c **** * Return:
 158:Generated_Source\PSoC5/isr_pushbutton.c **** *   None
 159:Generated_Source\PSoC5/isr_pushbutton.c **** *
 160:Generated_Source\PSoC5/isr_pushbutton.c **** *******************************************************************************/
 161:Generated_Source\PSoC5/isr_pushbutton.c **** CY_ISR(isr_pushbutton_Interrupt)
 162:Generated_Source\PSoC5/isr_pushbutton.c **** {
  28              		.loc 1 162 0
  29              		.cfi_startproc
  30              		@ args = 0, pretend = 0, frame = 0
  31              		@ frame_needed = 0, uses_anonymous_args = 0
  32 0000 08B5     		push	{r3, lr}
  33              		.cfi_def_cfa_offset 8
  34              		.cfi_offset 3, -8
  35              		.cfi_offset 14, -4
 163:Generated_Source\PSoC5/isr_pushbutton.c ****     #ifdef isr_pushbutton_INTERRUPT_INTERRUPT_CALLBACK
 164:Generated_Source\PSoC5/isr_pushbutton.c ****         isr_pushbutton_Interrupt_InterruptCallback();
 165:Generated_Source\PSoC5/isr_pushbutton.c ****     #endif /* isr_pushbutton_INTERRUPT_INTERRUPT_CALLBACK */ 
 166:Generated_Source\PSoC5/isr_pushbutton.c **** 
 167:Generated_Source\PSoC5/isr_pushbutton.c ****     /*  Place your Interrupt code here. */
 168:Generated_Source\PSoC5/isr_pushbutton.c ****     /* `#START isr_pushbutton_Interrupt` */
 169:Generated_Source\PSoC5/isr_pushbutton.c ****         PushButton_ClearInterrupt();
  36              		.loc 1 169 0
  37 0002 FFF7FEFF 		bl	PushButton_ClearInterrupt
  38              	.LVL0:
 170:Generated_Source\PSoC5/isr_pushbutton.c ****         flagPB = 1;
  39              		.loc 1 170 0
  40 0006 0122     		movs	r2, #1
  41 0008 014B     		ldr	r3, .L3
  42 000a 1A70     		strb	r2, [r3]
  43 000c 08BD     		pop	{r3, pc}
  44              	.L4:
  45 000e 00BF     		.align	2
  46              	.L3:
  47 0010 00000000 		.word	.LANCHOR0
  48              		.cfi_endproc
  49              	.LFE66:
  50              		.size	isr_pushbutton_Interrupt, .-isr_pushbutton_Interrupt
  51              		.section	.text.isr_pushbutton_SetVector,"ax",%progbits
  52              		.align	2
  53              		.global	isr_pushbutton_SetVector
  54              		.thumb
  55              		.thumb_func
  56              		.type	isr_pushbutton_SetVector, %function
  57              	isr_pushbutton_SetVector:
  58              	.LFB67:
ARM GAS  C:\Users\giris\AppData\Local\Temp\ccy6rokf.s 			page 5


 171:Generated_Source\PSoC5/isr_pushbutton.c ****     /* `#END` */
 172:Generated_Source\PSoC5/isr_pushbutton.c **** }
 173:Generated_Source\PSoC5/isr_pushbutton.c **** 
 174:Generated_Source\PSoC5/isr_pushbutton.c **** 
 175:Generated_Source\PSoC5/isr_pushbutton.c **** /*******************************************************************************
 176:Generated_Source\PSoC5/isr_pushbutton.c **** * Function Name: isr_pushbutton_SetVector
 177:Generated_Source\PSoC5/isr_pushbutton.c **** ********************************************************************************
 178:Generated_Source\PSoC5/isr_pushbutton.c **** *
 179:Generated_Source\PSoC5/isr_pushbutton.c **** * Summary:
 180:Generated_Source\PSoC5/isr_pushbutton.c **** *   Change the ISR vector for the Interrupt. Note calling isr_pushbutton_Start
 181:Generated_Source\PSoC5/isr_pushbutton.c **** *   will override any effect this method would have had. To set the vector 
 182:Generated_Source\PSoC5/isr_pushbutton.c **** *   before the component has been started use isr_pushbutton_StartEx instead.
 183:Generated_Source\PSoC5/isr_pushbutton.c **** * 
 184:Generated_Source\PSoC5/isr_pushbutton.c **** *   When defining ISR functions, the CY_ISR and CY_ISR_PROTO macros should be 
 185:Generated_Source\PSoC5/isr_pushbutton.c **** *   used to provide consistent definition across compilers:
 186:Generated_Source\PSoC5/isr_pushbutton.c **** *
 187:Generated_Source\PSoC5/isr_pushbutton.c **** *   Function definition example:
 188:Generated_Source\PSoC5/isr_pushbutton.c **** *   CY_ISR(MyISR)
 189:Generated_Source\PSoC5/isr_pushbutton.c **** *   {
 190:Generated_Source\PSoC5/isr_pushbutton.c **** *   }
 191:Generated_Source\PSoC5/isr_pushbutton.c **** *
 192:Generated_Source\PSoC5/isr_pushbutton.c **** *   Function prototype example:
 193:Generated_Source\PSoC5/isr_pushbutton.c **** *     CY_ISR_PROTO(MyISR);
 194:Generated_Source\PSoC5/isr_pushbutton.c **** *
 195:Generated_Source\PSoC5/isr_pushbutton.c **** * Parameters:
 196:Generated_Source\PSoC5/isr_pushbutton.c **** *   address: Address of the ISR to set in the interrupt vector table.
 197:Generated_Source\PSoC5/isr_pushbutton.c **** *
 198:Generated_Source\PSoC5/isr_pushbutton.c **** * Return:
 199:Generated_Source\PSoC5/isr_pushbutton.c **** *   None
 200:Generated_Source\PSoC5/isr_pushbutton.c **** *
 201:Generated_Source\PSoC5/isr_pushbutton.c **** *******************************************************************************/
 202:Generated_Source\PSoC5/isr_pushbutton.c **** void isr_pushbutton_SetVector(cyisraddress address)
 203:Generated_Source\PSoC5/isr_pushbutton.c **** {
  59              		.loc 1 203 0
  60              		.cfi_startproc
  61              		@ args = 0, pretend = 0, frame = 0
  62              		@ frame_needed = 0, uses_anonymous_args = 0
  63              		@ link register save eliminated.
  64              	.LVL1:
 204:Generated_Source\PSoC5/isr_pushbutton.c ****     cyisraddress * ramVectorTable;
 205:Generated_Source\PSoC5/isr_pushbutton.c **** 
 206:Generated_Source\PSoC5/isr_pushbutton.c ****     ramVectorTable = (cyisraddress *) *CYINT_VECT_TABLE;
  65              		.loc 1 206 0
  66 0000 014B     		ldr	r3, .L6
  67 0002 1B68     		ldr	r3, [r3]
  68              	.LVL2:
 207:Generated_Source\PSoC5/isr_pushbutton.c **** 
 208:Generated_Source\PSoC5/isr_pushbutton.c ****     ramVectorTable[CYINT_IRQ_BASE + (uint32)isr_pushbutton__INTC_NUMBER] = address;
  69              		.loc 1 208 0
  70 0004 5865     		str	r0, [r3, #84]
  71 0006 7047     		bx	lr
  72              	.L7:
  73              		.align	2
  74              	.L6:
  75 0008 08ED00E0 		.word	-536810232
  76              		.cfi_endproc
  77              	.LFE67:
ARM GAS  C:\Users\giris\AppData\Local\Temp\ccy6rokf.s 			page 6


  78              		.size	isr_pushbutton_SetVector, .-isr_pushbutton_SetVector
  79              		.section	.text.isr_pushbutton_GetVector,"ax",%progbits
  80              		.align	2
  81              		.global	isr_pushbutton_GetVector
  82              		.thumb
  83              		.thumb_func
  84              		.type	isr_pushbutton_GetVector, %function
  85              	isr_pushbutton_GetVector:
  86              	.LFB68:
 209:Generated_Source\PSoC5/isr_pushbutton.c **** }
 210:Generated_Source\PSoC5/isr_pushbutton.c **** 
 211:Generated_Source\PSoC5/isr_pushbutton.c **** 
 212:Generated_Source\PSoC5/isr_pushbutton.c **** /*******************************************************************************
 213:Generated_Source\PSoC5/isr_pushbutton.c **** * Function Name: isr_pushbutton_GetVector
 214:Generated_Source\PSoC5/isr_pushbutton.c **** ********************************************************************************
 215:Generated_Source\PSoC5/isr_pushbutton.c **** *
 216:Generated_Source\PSoC5/isr_pushbutton.c **** * Summary:
 217:Generated_Source\PSoC5/isr_pushbutton.c **** *   Gets the "address" of the current ISR vector for the Interrupt.
 218:Generated_Source\PSoC5/isr_pushbutton.c **** *
 219:Generated_Source\PSoC5/isr_pushbutton.c **** * Parameters:
 220:Generated_Source\PSoC5/isr_pushbutton.c **** *   None
 221:Generated_Source\PSoC5/isr_pushbutton.c **** *
 222:Generated_Source\PSoC5/isr_pushbutton.c **** * Return:
 223:Generated_Source\PSoC5/isr_pushbutton.c **** *   Address of the ISR in the interrupt vector table.
 224:Generated_Source\PSoC5/isr_pushbutton.c **** *
 225:Generated_Source\PSoC5/isr_pushbutton.c **** *******************************************************************************/
 226:Generated_Source\PSoC5/isr_pushbutton.c **** cyisraddress isr_pushbutton_GetVector(void)
 227:Generated_Source\PSoC5/isr_pushbutton.c **** {
  87              		.loc 1 227 0
  88              		.cfi_startproc
  89              		@ args = 0, pretend = 0, frame = 0
  90              		@ frame_needed = 0, uses_anonymous_args = 0
  91              		@ link register save eliminated.
 228:Generated_Source\PSoC5/isr_pushbutton.c ****     cyisraddress * ramVectorTable;
 229:Generated_Source\PSoC5/isr_pushbutton.c **** 
 230:Generated_Source\PSoC5/isr_pushbutton.c ****     ramVectorTable = (cyisraddress *) *CYINT_VECT_TABLE;
  92              		.loc 1 230 0
  93 0000 014B     		ldr	r3, .L9
  94 0002 1B68     		ldr	r3, [r3]
  95              	.LVL3:
 231:Generated_Source\PSoC5/isr_pushbutton.c **** 
 232:Generated_Source\PSoC5/isr_pushbutton.c ****     return ramVectorTable[CYINT_IRQ_BASE + (uint32)isr_pushbutton__INTC_NUMBER];
 233:Generated_Source\PSoC5/isr_pushbutton.c **** }
  96              		.loc 1 233 0
  97 0004 586D     		ldr	r0, [r3, #84]
  98 0006 7047     		bx	lr
  99              	.L10:
 100              		.align	2
 101              	.L9:
 102 0008 08ED00E0 		.word	-536810232
 103              		.cfi_endproc
 104              	.LFE68:
 105              		.size	isr_pushbutton_GetVector, .-isr_pushbutton_GetVector
 106              		.section	.text.isr_pushbutton_SetPriority,"ax",%progbits
 107              		.align	2
 108              		.global	isr_pushbutton_SetPriority
 109              		.thumb
ARM GAS  C:\Users\giris\AppData\Local\Temp\ccy6rokf.s 			page 7


 110              		.thumb_func
 111              		.type	isr_pushbutton_SetPriority, %function
 112              	isr_pushbutton_SetPriority:
 113              	.LFB69:
 234:Generated_Source\PSoC5/isr_pushbutton.c **** 
 235:Generated_Source\PSoC5/isr_pushbutton.c **** 
 236:Generated_Source\PSoC5/isr_pushbutton.c **** /*******************************************************************************
 237:Generated_Source\PSoC5/isr_pushbutton.c **** * Function Name: isr_pushbutton_SetPriority
 238:Generated_Source\PSoC5/isr_pushbutton.c **** ********************************************************************************
 239:Generated_Source\PSoC5/isr_pushbutton.c **** *
 240:Generated_Source\PSoC5/isr_pushbutton.c **** * Summary:
 241:Generated_Source\PSoC5/isr_pushbutton.c **** *   Sets the Priority of the Interrupt. 
 242:Generated_Source\PSoC5/isr_pushbutton.c **** *
 243:Generated_Source\PSoC5/isr_pushbutton.c **** *   Note calling isr_pushbutton_Start or isr_pushbutton_StartEx will 
 244:Generated_Source\PSoC5/isr_pushbutton.c **** *   override any effect this API would have had. This API should only be called
 245:Generated_Source\PSoC5/isr_pushbutton.c **** *   after isr_pushbutton_Start or isr_pushbutton_StartEx has been called. 
 246:Generated_Source\PSoC5/isr_pushbutton.c **** *   To set the initial priority for the component, use the Design-Wide Resources
 247:Generated_Source\PSoC5/isr_pushbutton.c **** *   Interrupt Editor.
 248:Generated_Source\PSoC5/isr_pushbutton.c **** *
 249:Generated_Source\PSoC5/isr_pushbutton.c **** *   Note This API has no effect on Non-maskable interrupt NMI).
 250:Generated_Source\PSoC5/isr_pushbutton.c **** *
 251:Generated_Source\PSoC5/isr_pushbutton.c **** * Parameters:
 252:Generated_Source\PSoC5/isr_pushbutton.c **** *   priority: Priority of the interrupt, 0 being the highest priority
 253:Generated_Source\PSoC5/isr_pushbutton.c **** *             PSoC 3 and PSoC 5LP: Priority is from 0 to 7.
 254:Generated_Source\PSoC5/isr_pushbutton.c **** *             PSoC 4: Priority is from 0 to 3.
 255:Generated_Source\PSoC5/isr_pushbutton.c **** *
 256:Generated_Source\PSoC5/isr_pushbutton.c **** * Return:
 257:Generated_Source\PSoC5/isr_pushbutton.c **** *   None
 258:Generated_Source\PSoC5/isr_pushbutton.c **** *
 259:Generated_Source\PSoC5/isr_pushbutton.c **** *******************************************************************************/
 260:Generated_Source\PSoC5/isr_pushbutton.c **** void isr_pushbutton_SetPriority(uint8 priority)
 261:Generated_Source\PSoC5/isr_pushbutton.c **** {
 114              		.loc 1 261 0
 115              		.cfi_startproc
 116              		@ args = 0, pretend = 0, frame = 0
 117              		@ frame_needed = 0, uses_anonymous_args = 0
 118              		@ link register save eliminated.
 119              	.LVL4:
 262:Generated_Source\PSoC5/isr_pushbutton.c ****     *isr_pushbutton_INTC_PRIOR = priority << 5;
 120              		.loc 1 262 0
 121 0000 4001     		lsls	r0, r0, #5
 122              	.LVL5:
 123 0002 C0B2     		uxtb	r0, r0
 124 0004 014B     		ldr	r3, .L12
 125 0006 1870     		strb	r0, [r3]
 126 0008 7047     		bx	lr
 127              	.L13:
 128 000a 00BF     		.align	2
 129              	.L12:
 130 000c 05E400E0 		.word	-536812539
 131              		.cfi_endproc
 132              	.LFE69:
 133              		.size	isr_pushbutton_SetPriority, .-isr_pushbutton_SetPriority
 134              		.section	.text.isr_pushbutton_GetPriority,"ax",%progbits
 135              		.align	2
 136              		.global	isr_pushbutton_GetPriority
 137              		.thumb
ARM GAS  C:\Users\giris\AppData\Local\Temp\ccy6rokf.s 			page 8


 138              		.thumb_func
 139              		.type	isr_pushbutton_GetPriority, %function
 140              	isr_pushbutton_GetPriority:
 141              	.LFB70:
 263:Generated_Source\PSoC5/isr_pushbutton.c **** }
 264:Generated_Source\PSoC5/isr_pushbutton.c **** 
 265:Generated_Source\PSoC5/isr_pushbutton.c **** 
 266:Generated_Source\PSoC5/isr_pushbutton.c **** /*******************************************************************************
 267:Generated_Source\PSoC5/isr_pushbutton.c **** * Function Name: isr_pushbutton_GetPriority
 268:Generated_Source\PSoC5/isr_pushbutton.c **** ********************************************************************************
 269:Generated_Source\PSoC5/isr_pushbutton.c **** *
 270:Generated_Source\PSoC5/isr_pushbutton.c **** * Summary:
 271:Generated_Source\PSoC5/isr_pushbutton.c **** *   Gets the Priority of the Interrupt.
 272:Generated_Source\PSoC5/isr_pushbutton.c **** *
 273:Generated_Source\PSoC5/isr_pushbutton.c **** * Parameters:
 274:Generated_Source\PSoC5/isr_pushbutton.c **** *   None
 275:Generated_Source\PSoC5/isr_pushbutton.c **** *
 276:Generated_Source\PSoC5/isr_pushbutton.c **** * Return:
 277:Generated_Source\PSoC5/isr_pushbutton.c **** *   Priority of the interrupt, 0 being the highest priority
 278:Generated_Source\PSoC5/isr_pushbutton.c **** *    PSoC 3 and PSoC 5LP: Priority is from 0 to 7.
 279:Generated_Source\PSoC5/isr_pushbutton.c **** *    PSoC 4: Priority is from 0 to 3.
 280:Generated_Source\PSoC5/isr_pushbutton.c **** *
 281:Generated_Source\PSoC5/isr_pushbutton.c **** *******************************************************************************/
 282:Generated_Source\PSoC5/isr_pushbutton.c **** uint8 isr_pushbutton_GetPriority(void)
 283:Generated_Source\PSoC5/isr_pushbutton.c **** {
 142              		.loc 1 283 0
 143              		.cfi_startproc
 144              		@ args = 0, pretend = 0, frame = 0
 145              		@ frame_needed = 0, uses_anonymous_args = 0
 146              		@ link register save eliminated.
 284:Generated_Source\PSoC5/isr_pushbutton.c ****     uint8 priority;
 285:Generated_Source\PSoC5/isr_pushbutton.c **** 
 286:Generated_Source\PSoC5/isr_pushbutton.c **** 
 287:Generated_Source\PSoC5/isr_pushbutton.c ****     priority = *isr_pushbutton_INTC_PRIOR >> 5;
 147              		.loc 1 287 0
 148 0000 014B     		ldr	r3, .L15
 149 0002 1878     		ldrb	r0, [r3]	@ zero_extendqisi2
 150              	.LVL6:
 288:Generated_Source\PSoC5/isr_pushbutton.c **** 
 289:Generated_Source\PSoC5/isr_pushbutton.c ****     return priority;
 290:Generated_Source\PSoC5/isr_pushbutton.c **** }
 151              		.loc 1 290 0
 152 0004 4009     		lsrs	r0, r0, #5
 153              	.LVL7:
 154 0006 7047     		bx	lr
 155              	.L16:
 156              		.align	2
 157              	.L15:
 158 0008 05E400E0 		.word	-536812539
 159              		.cfi_endproc
 160              	.LFE70:
 161              		.size	isr_pushbutton_GetPriority, .-isr_pushbutton_GetPriority
 162              		.section	.text.isr_pushbutton_Enable,"ax",%progbits
 163              		.align	2
 164              		.global	isr_pushbutton_Enable
 165              		.thumb
 166              		.thumb_func
ARM GAS  C:\Users\giris\AppData\Local\Temp\ccy6rokf.s 			page 9


 167              		.type	isr_pushbutton_Enable, %function
 168              	isr_pushbutton_Enable:
 169              	.LFB71:
 291:Generated_Source\PSoC5/isr_pushbutton.c **** 
 292:Generated_Source\PSoC5/isr_pushbutton.c **** 
 293:Generated_Source\PSoC5/isr_pushbutton.c **** /*******************************************************************************
 294:Generated_Source\PSoC5/isr_pushbutton.c **** * Function Name: isr_pushbutton_Enable
 295:Generated_Source\PSoC5/isr_pushbutton.c **** ********************************************************************************
 296:Generated_Source\PSoC5/isr_pushbutton.c **** *
 297:Generated_Source\PSoC5/isr_pushbutton.c **** * Summary:
 298:Generated_Source\PSoC5/isr_pushbutton.c **** *   Enables the interrupt to the interrupt controller. Do not call this function
 299:Generated_Source\PSoC5/isr_pushbutton.c **** *   unless ISR_Start() has been called or the functionality of the ISR_Start() 
 300:Generated_Source\PSoC5/isr_pushbutton.c **** *   function, which sets the vector and the priority, has been called.
 301:Generated_Source\PSoC5/isr_pushbutton.c **** *
 302:Generated_Source\PSoC5/isr_pushbutton.c **** * Parameters:
 303:Generated_Source\PSoC5/isr_pushbutton.c **** *   None
 304:Generated_Source\PSoC5/isr_pushbutton.c **** *
 305:Generated_Source\PSoC5/isr_pushbutton.c **** * Return:
 306:Generated_Source\PSoC5/isr_pushbutton.c **** *   None
 307:Generated_Source\PSoC5/isr_pushbutton.c **** *
 308:Generated_Source\PSoC5/isr_pushbutton.c **** *******************************************************************************/
 309:Generated_Source\PSoC5/isr_pushbutton.c **** void isr_pushbutton_Enable(void)
 310:Generated_Source\PSoC5/isr_pushbutton.c **** {
 170              		.loc 1 310 0
 171              		.cfi_startproc
 172              		@ args = 0, pretend = 0, frame = 0
 173              		@ frame_needed = 0, uses_anonymous_args = 0
 174              		@ link register save eliminated.
 311:Generated_Source\PSoC5/isr_pushbutton.c ****     /* Enable the general interrupt. */
 312:Generated_Source\PSoC5/isr_pushbutton.c ****     *isr_pushbutton_INTC_SET_EN = isr_pushbutton__INTC_MASK;
 175              		.loc 1 312 0
 176 0000 2022     		movs	r2, #32
 177 0002 014B     		ldr	r3, .L18
 178 0004 1A60     		str	r2, [r3]
 179 0006 7047     		bx	lr
 180              	.L19:
 181              		.align	2
 182              	.L18:
 183 0008 00E100E0 		.word	-536813312
 184              		.cfi_endproc
 185              	.LFE71:
 186              		.size	isr_pushbutton_Enable, .-isr_pushbutton_Enable
 187              		.section	.text.isr_pushbutton_GetState,"ax",%progbits
 188              		.align	2
 189              		.global	isr_pushbutton_GetState
 190              		.thumb
 191              		.thumb_func
 192              		.type	isr_pushbutton_GetState, %function
 193              	isr_pushbutton_GetState:
 194              	.LFB72:
 313:Generated_Source\PSoC5/isr_pushbutton.c **** }
 314:Generated_Source\PSoC5/isr_pushbutton.c **** 
 315:Generated_Source\PSoC5/isr_pushbutton.c **** 
 316:Generated_Source\PSoC5/isr_pushbutton.c **** /*******************************************************************************
 317:Generated_Source\PSoC5/isr_pushbutton.c **** * Function Name: isr_pushbutton_GetState
 318:Generated_Source\PSoC5/isr_pushbutton.c **** ********************************************************************************
 319:Generated_Source\PSoC5/isr_pushbutton.c **** *
ARM GAS  C:\Users\giris\AppData\Local\Temp\ccy6rokf.s 			page 10


 320:Generated_Source\PSoC5/isr_pushbutton.c **** * Summary:
 321:Generated_Source\PSoC5/isr_pushbutton.c **** *   Gets the state (enabled, disabled) of the Interrupt.
 322:Generated_Source\PSoC5/isr_pushbutton.c **** *
 323:Generated_Source\PSoC5/isr_pushbutton.c **** * Parameters:
 324:Generated_Source\PSoC5/isr_pushbutton.c **** *   None
 325:Generated_Source\PSoC5/isr_pushbutton.c **** *
 326:Generated_Source\PSoC5/isr_pushbutton.c **** * Return:
 327:Generated_Source\PSoC5/isr_pushbutton.c **** *   1 if enabled, 0 if disabled.
 328:Generated_Source\PSoC5/isr_pushbutton.c **** *
 329:Generated_Source\PSoC5/isr_pushbutton.c **** *******************************************************************************/
 330:Generated_Source\PSoC5/isr_pushbutton.c **** uint8 isr_pushbutton_GetState(void)
 331:Generated_Source\PSoC5/isr_pushbutton.c **** {
 195              		.loc 1 331 0
 196              		.cfi_startproc
 197              		@ args = 0, pretend = 0, frame = 0
 198              		@ frame_needed = 0, uses_anonymous_args = 0
 199              		@ link register save eliminated.
 332:Generated_Source\PSoC5/isr_pushbutton.c ****     /* Get the state of the general interrupt. */
 333:Generated_Source\PSoC5/isr_pushbutton.c ****     return ((*isr_pushbutton_INTC_SET_EN & (uint32)isr_pushbutton__INTC_MASK) != 0u) ? 1u:0u;
 200              		.loc 1 333 0
 201 0000 044B     		ldr	r3, .L23
 202 0002 1B68     		ldr	r3, [r3]
 203 0004 13F0200F 		tst	r3, #32
 204 0008 01D0     		beq	.L22
 205 000a 0120     		movs	r0, #1
 206 000c 7047     		bx	lr
 207              	.L22:
 208 000e 0020     		movs	r0, #0
 334:Generated_Source\PSoC5/isr_pushbutton.c **** }
 209              		.loc 1 334 0
 210 0010 7047     		bx	lr
 211              	.L24:
 212 0012 00BF     		.align	2
 213              	.L23:
 214 0014 00E100E0 		.word	-536813312
 215              		.cfi_endproc
 216              	.LFE72:
 217              		.size	isr_pushbutton_GetState, .-isr_pushbutton_GetState
 218              		.section	.text.isr_pushbutton_Disable,"ax",%progbits
 219              		.align	2
 220              		.global	isr_pushbutton_Disable
 221              		.thumb
 222              		.thumb_func
 223              		.type	isr_pushbutton_Disable, %function
 224              	isr_pushbutton_Disable:
 225              	.LFB73:
 335:Generated_Source\PSoC5/isr_pushbutton.c **** 
 336:Generated_Source\PSoC5/isr_pushbutton.c **** 
 337:Generated_Source\PSoC5/isr_pushbutton.c **** /*******************************************************************************
 338:Generated_Source\PSoC5/isr_pushbutton.c **** * Function Name: isr_pushbutton_Disable
 339:Generated_Source\PSoC5/isr_pushbutton.c **** ********************************************************************************
 340:Generated_Source\PSoC5/isr_pushbutton.c **** *
 341:Generated_Source\PSoC5/isr_pushbutton.c **** * Summary:
 342:Generated_Source\PSoC5/isr_pushbutton.c **** *   Disables the Interrupt in the interrupt controller.
 343:Generated_Source\PSoC5/isr_pushbutton.c **** *
 344:Generated_Source\PSoC5/isr_pushbutton.c **** * Parameters:
 345:Generated_Source\PSoC5/isr_pushbutton.c **** *   None
ARM GAS  C:\Users\giris\AppData\Local\Temp\ccy6rokf.s 			page 11


 346:Generated_Source\PSoC5/isr_pushbutton.c **** *
 347:Generated_Source\PSoC5/isr_pushbutton.c **** * Return:
 348:Generated_Source\PSoC5/isr_pushbutton.c **** *   None
 349:Generated_Source\PSoC5/isr_pushbutton.c **** *
 350:Generated_Source\PSoC5/isr_pushbutton.c **** *******************************************************************************/
 351:Generated_Source\PSoC5/isr_pushbutton.c **** void isr_pushbutton_Disable(void)
 352:Generated_Source\PSoC5/isr_pushbutton.c **** {
 226              		.loc 1 352 0
 227              		.cfi_startproc
 228              		@ args = 0, pretend = 0, frame = 0
 229              		@ frame_needed = 0, uses_anonymous_args = 0
 230              		@ link register save eliminated.
 353:Generated_Source\PSoC5/isr_pushbutton.c ****     /* Disable the general interrupt. */
 354:Generated_Source\PSoC5/isr_pushbutton.c ****     *isr_pushbutton_INTC_CLR_EN = isr_pushbutton__INTC_MASK;
 231              		.loc 1 354 0
 232 0000 2022     		movs	r2, #32
 233 0002 014B     		ldr	r3, .L26
 234 0004 1A60     		str	r2, [r3]
 235 0006 7047     		bx	lr
 236              	.L27:
 237              		.align	2
 238              	.L26:
 239 0008 80E100E0 		.word	-536813184
 240              		.cfi_endproc
 241              	.LFE73:
 242              		.size	isr_pushbutton_Disable, .-isr_pushbutton_Disable
 243              		.section	.text.isr_pushbutton_Start,"ax",%progbits
 244              		.align	2
 245              		.global	isr_pushbutton_Start
 246              		.thumb
 247              		.thumb_func
 248              		.type	isr_pushbutton_Start, %function
 249              	isr_pushbutton_Start:
 250              	.LFB63:
  63:Generated_Source\PSoC5/isr_pushbutton.c ****     /* For all we know the interrupt is active. */
 251              		.loc 1 63 0
 252              		.cfi_startproc
 253              		@ args = 0, pretend = 0, frame = 0
 254              		@ frame_needed = 0, uses_anonymous_args = 0
 255 0000 08B5     		push	{r3, lr}
 256              		.cfi_def_cfa_offset 8
 257              		.cfi_offset 3, -8
 258              		.cfi_offset 14, -4
  65:Generated_Source\PSoC5/isr_pushbutton.c **** 
 259              		.loc 1 65 0
 260 0002 FFF7FEFF 		bl	isr_pushbutton_Disable
 261              	.LVL8:
  68:Generated_Source\PSoC5/isr_pushbutton.c **** 
 262              		.loc 1 68 0
 263 0006 0448     		ldr	r0, .L30
 264 0008 FFF7FEFF 		bl	isr_pushbutton_SetVector
 265              	.LVL9:
  71:Generated_Source\PSoC5/isr_pushbutton.c **** 
 266              		.loc 1 71 0
 267 000c 0720     		movs	r0, #7
 268 000e FFF7FEFF 		bl	isr_pushbutton_SetPriority
 269              	.LVL10:
ARM GAS  C:\Users\giris\AppData\Local\Temp\ccy6rokf.s 			page 12


  74:Generated_Source\PSoC5/isr_pushbutton.c **** }
 270              		.loc 1 74 0
 271 0012 FFF7FEFF 		bl	isr_pushbutton_Enable
 272              	.LVL11:
 273 0016 08BD     		pop	{r3, pc}
 274              	.L31:
 275              		.align	2
 276              	.L30:
 277 0018 00000000 		.word	isr_pushbutton_Interrupt
 278              		.cfi_endproc
 279              	.LFE63:
 280              		.size	isr_pushbutton_Start, .-isr_pushbutton_Start
 281              		.section	.text.isr_pushbutton_StartEx,"ax",%progbits
 282              		.align	2
 283              		.global	isr_pushbutton_StartEx
 284              		.thumb
 285              		.thumb_func
 286              		.type	isr_pushbutton_StartEx, %function
 287              	isr_pushbutton_StartEx:
 288              	.LFB64:
 106:Generated_Source\PSoC5/isr_pushbutton.c ****     /* For all we know the interrupt is active. */
 289              		.loc 1 106 0
 290              		.cfi_startproc
 291              		@ args = 0, pretend = 0, frame = 0
 292              		@ frame_needed = 0, uses_anonymous_args = 0
 293              	.LVL12:
 294 0000 10B5     		push	{r4, lr}
 295              		.cfi_def_cfa_offset 8
 296              		.cfi_offset 4, -8
 297              		.cfi_offset 14, -4
 298 0002 0446     		mov	r4, r0
 108:Generated_Source\PSoC5/isr_pushbutton.c **** 
 299              		.loc 1 108 0
 300 0004 FFF7FEFF 		bl	isr_pushbutton_Disable
 301              	.LVL13:
 111:Generated_Source\PSoC5/isr_pushbutton.c **** 
 302              		.loc 1 111 0
 303 0008 2046     		mov	r0, r4
 304 000a FFF7FEFF 		bl	isr_pushbutton_SetVector
 305              	.LVL14:
 114:Generated_Source\PSoC5/isr_pushbutton.c **** 
 306              		.loc 1 114 0
 307 000e 0720     		movs	r0, #7
 308 0010 FFF7FEFF 		bl	isr_pushbutton_SetPriority
 309              	.LVL15:
 117:Generated_Source\PSoC5/isr_pushbutton.c **** }
 310              		.loc 1 117 0
 311 0014 FFF7FEFF 		bl	isr_pushbutton_Enable
 312              	.LVL16:
 313 0018 10BD     		pop	{r4, pc}
 314              		.cfi_endproc
 315              	.LFE64:
 316              		.size	isr_pushbutton_StartEx, .-isr_pushbutton_StartEx
 317 001a 00BF     		.section	.text.isr_pushbutton_Stop,"ax",%progbits
 318              		.align	2
 319              		.global	isr_pushbutton_Stop
 320              		.thumb
ARM GAS  C:\Users\giris\AppData\Local\Temp\ccy6rokf.s 			page 13


 321              		.thumb_func
 322              		.type	isr_pushbutton_Stop, %function
 323              	isr_pushbutton_Stop:
 324              	.LFB65:
 136:Generated_Source\PSoC5/isr_pushbutton.c ****     /* Disable this interrupt. */
 325              		.loc 1 136 0
 326              		.cfi_startproc
 327              		@ args = 0, pretend = 0, frame = 0
 328              		@ frame_needed = 0, uses_anonymous_args = 0
 329 0000 08B5     		push	{r3, lr}
 330              		.cfi_def_cfa_offset 8
 331              		.cfi_offset 3, -8
 332              		.cfi_offset 14, -4
 138:Generated_Source\PSoC5/isr_pushbutton.c **** 
 333              		.loc 1 138 0
 334 0002 FFF7FEFF 		bl	isr_pushbutton_Disable
 335              	.LVL17:
 141:Generated_Source\PSoC5/isr_pushbutton.c **** }
 336              		.loc 1 141 0
 337 0006 0248     		ldr	r0, .L36
 338 0008 FFF7FEFF 		bl	isr_pushbutton_SetVector
 339              	.LVL18:
 340 000c 08BD     		pop	{r3, pc}
 341              	.L37:
 342 000e 00BF     		.align	2
 343              	.L36:
 344 0010 00000000 		.word	IntDefaultHandler
 345              		.cfi_endproc
 346              	.LFE65:
 347              		.size	isr_pushbutton_Stop, .-isr_pushbutton_Stop
 348              		.section	.text.isr_pushbutton_SetPending,"ax",%progbits
 349              		.align	2
 350              		.global	isr_pushbutton_SetPending
 351              		.thumb
 352              		.thumb_func
 353              		.type	isr_pushbutton_SetPending, %function
 354              	isr_pushbutton_SetPending:
 355              	.LFB74:
 355:Generated_Source\PSoC5/isr_pushbutton.c **** }
 356:Generated_Source\PSoC5/isr_pushbutton.c **** 
 357:Generated_Source\PSoC5/isr_pushbutton.c **** 
 358:Generated_Source\PSoC5/isr_pushbutton.c **** /*******************************************************************************
 359:Generated_Source\PSoC5/isr_pushbutton.c **** * Function Name: isr_pushbutton_SetPending
 360:Generated_Source\PSoC5/isr_pushbutton.c **** ********************************************************************************
 361:Generated_Source\PSoC5/isr_pushbutton.c **** *
 362:Generated_Source\PSoC5/isr_pushbutton.c **** * Summary:
 363:Generated_Source\PSoC5/isr_pushbutton.c **** *   Causes the Interrupt to enter the pending state, a software method of
 364:Generated_Source\PSoC5/isr_pushbutton.c **** *   generating the interrupt.
 365:Generated_Source\PSoC5/isr_pushbutton.c **** *
 366:Generated_Source\PSoC5/isr_pushbutton.c **** * Parameters:
 367:Generated_Source\PSoC5/isr_pushbutton.c **** *   None
 368:Generated_Source\PSoC5/isr_pushbutton.c **** *
 369:Generated_Source\PSoC5/isr_pushbutton.c **** * Return:
 370:Generated_Source\PSoC5/isr_pushbutton.c **** *   None
 371:Generated_Source\PSoC5/isr_pushbutton.c **** *
 372:Generated_Source\PSoC5/isr_pushbutton.c **** * Side Effects:
 373:Generated_Source\PSoC5/isr_pushbutton.c **** *   If interrupts are enabled and the interrupt is set up properly, the ISR is
ARM GAS  C:\Users\giris\AppData\Local\Temp\ccy6rokf.s 			page 14


 374:Generated_Source\PSoC5/isr_pushbutton.c **** *   entered (depending on the priority of this interrupt and other pending 
 375:Generated_Source\PSoC5/isr_pushbutton.c **** *   interrupts).
 376:Generated_Source\PSoC5/isr_pushbutton.c **** *
 377:Generated_Source\PSoC5/isr_pushbutton.c **** *******************************************************************************/
 378:Generated_Source\PSoC5/isr_pushbutton.c **** void isr_pushbutton_SetPending(void)
 379:Generated_Source\PSoC5/isr_pushbutton.c **** {
 356              		.loc 1 379 0
 357              		.cfi_startproc
 358              		@ args = 0, pretend = 0, frame = 0
 359              		@ frame_needed = 0, uses_anonymous_args = 0
 360              		@ link register save eliminated.
 380:Generated_Source\PSoC5/isr_pushbutton.c ****     *isr_pushbutton_INTC_SET_PD = isr_pushbutton__INTC_MASK;
 361              		.loc 1 380 0
 362 0000 2022     		movs	r2, #32
 363 0002 014B     		ldr	r3, .L39
 364 0004 1A60     		str	r2, [r3]
 365 0006 7047     		bx	lr
 366              	.L40:
 367              		.align	2
 368              	.L39:
 369 0008 00E200E0 		.word	-536813056
 370              		.cfi_endproc
 371              	.LFE74:
 372              		.size	isr_pushbutton_SetPending, .-isr_pushbutton_SetPending
 373              		.section	.text.isr_pushbutton_ClearPending,"ax",%progbits
 374              		.align	2
 375              		.global	isr_pushbutton_ClearPending
 376              		.thumb
 377              		.thumb_func
 378              		.type	isr_pushbutton_ClearPending, %function
 379              	isr_pushbutton_ClearPending:
 380              	.LFB75:
 381:Generated_Source\PSoC5/isr_pushbutton.c **** }
 382:Generated_Source\PSoC5/isr_pushbutton.c **** 
 383:Generated_Source\PSoC5/isr_pushbutton.c **** 
 384:Generated_Source\PSoC5/isr_pushbutton.c **** /*******************************************************************************
 385:Generated_Source\PSoC5/isr_pushbutton.c **** * Function Name: isr_pushbutton_ClearPending
 386:Generated_Source\PSoC5/isr_pushbutton.c **** ********************************************************************************
 387:Generated_Source\PSoC5/isr_pushbutton.c **** *
 388:Generated_Source\PSoC5/isr_pushbutton.c **** * Summary:
 389:Generated_Source\PSoC5/isr_pushbutton.c **** *   Clears a pending interrupt in the interrupt controller.
 390:Generated_Source\PSoC5/isr_pushbutton.c **** *
 391:Generated_Source\PSoC5/isr_pushbutton.c **** *   Note Some interrupt sources are clear-on-read and require the block 
 392:Generated_Source\PSoC5/isr_pushbutton.c **** *   interrupt/status register to be read/cleared with the appropriate block API 
 393:Generated_Source\PSoC5/isr_pushbutton.c **** *   (GPIO, UART, and so on). Otherwise the ISR will continue to remain in 
 394:Generated_Source\PSoC5/isr_pushbutton.c **** *   pending state even though the interrupt itself is cleared using this API.
 395:Generated_Source\PSoC5/isr_pushbutton.c **** *
 396:Generated_Source\PSoC5/isr_pushbutton.c **** * Parameters:
 397:Generated_Source\PSoC5/isr_pushbutton.c **** *   None
 398:Generated_Source\PSoC5/isr_pushbutton.c **** *
 399:Generated_Source\PSoC5/isr_pushbutton.c **** * Return:
 400:Generated_Source\PSoC5/isr_pushbutton.c **** *   None
 401:Generated_Source\PSoC5/isr_pushbutton.c **** *
 402:Generated_Source\PSoC5/isr_pushbutton.c **** *******************************************************************************/
 403:Generated_Source\PSoC5/isr_pushbutton.c **** void isr_pushbutton_ClearPending(void)
 404:Generated_Source\PSoC5/isr_pushbutton.c **** {
 381              		.loc 1 404 0
ARM GAS  C:\Users\giris\AppData\Local\Temp\ccy6rokf.s 			page 15


 382              		.cfi_startproc
 383              		@ args = 0, pretend = 0, frame = 0
 384              		@ frame_needed = 0, uses_anonymous_args = 0
 385              		@ link register save eliminated.
 405:Generated_Source\PSoC5/isr_pushbutton.c ****     *isr_pushbutton_INTC_CLR_PD = isr_pushbutton__INTC_MASK;
 386              		.loc 1 405 0
 387 0000 2022     		movs	r2, #32
 388 0002 014B     		ldr	r3, .L42
 389 0004 1A60     		str	r2, [r3]
 390 0006 7047     		bx	lr
 391              	.L43:
 392              		.align	2
 393              	.L42:
 394 0008 80E200E0 		.word	-536812928
 395              		.cfi_endproc
 396              	.LFE75:
 397              		.size	isr_pushbutton_ClearPending, .-isr_pushbutton_ClearPending
 398              		.global	flagPB
 399              		.bss
 400              		.set	.LANCHOR0,. + 0
 401              		.type	flagPB, %object
 402              		.size	flagPB, 1
 403              	flagPB:
 404 0000 00       		.space	1
 405              		.text
 406              	.Letext0:
 407              		.file 2 "c:\\program files (x86)\\cypress\\psoc creator\\4.4\\psoc creator\\import\\gnu\\arm\\5.4.
 408              		.file 3 "c:\\program files (x86)\\cypress\\psoc creator\\4.4\\psoc creator\\import\\gnu\\arm\\5.4.
 409              		.file 4 "Generated_Source\\PSoC5/cytypes.h"
 410              		.file 5 "Generated_Source\\PSoC5/core_cm3.h"
 411              		.file 6 "Generated_Source\\PSoC5/PushButton.h"