ARM GAS  C:\Users\giris\AppData\Local\Temp\ccfd0rO4.s 			page 1


   1              		.syntax unified
   2              		.cpu cortex-m3
   3              		.fpu softvfp
   4              		.eabi_attribute 20, 1
   5              		.eabi_attribute 21, 1
   6              		.eabi_attribute 23, 3
   7              		.eabi_attribute 24, 1
   8              		.eabi_attribute 25, 1
   9              		.eabi_attribute 26, 1
  10              		.eabi_attribute 30, 1
  11              		.eabi_attribute 34, 1
  12              		.eabi_attribute 18, 4
  13              		.thumb
  14              		.syntax unified
  15              		.file	"main.c"
  16              		.text
  17              	.Ltext0:
  18              		.cfi_sections	.debug_frame
  19              		.section	.text.isr_Button_RisingEdge_Interrupt,"ax",%progbits
  20              		.align	2
  21              		.global	isr_Button_RisingEdge_Interrupt
  22              		.thumb
  23              		.thumb_func
  24              		.type	isr_Button_RisingEdge_Interrupt, %function
  25              	isr_Button_RisingEdge_Interrupt:
  26              	.LFB65:
  27              		.file 1 "main.c"
   1:main.c        **** /* ========================================
   2:main.c        ****  *
   3:main.c        ****  * Copyright YOUR COMPANY, THE YEAR
   4:main.c        ****  * All Rights Reserved
   5:main.c        ****  * UNPUBLISHED, LICENSED SOFTWARE.
   6:main.c        ****  *
   7:main.c        ****  * CONFIDENTIAL AND PROPRIETARY INFORMATION
   8:main.c        ****  * WHICH IS THE PROPERTY OF your company.
   9:main.c        ****  *
  10:main.c        ****  * ========================================
  11:main.c        **** */
  12:main.c        **** #include "project.h"
  13:main.c        **** 
  14:main.c        **** volatile int i = 0;
  15:main.c        **** 
  16:main.c        **** CY_ISR_PROTO(isr_Button_RisingEdge_Interrupt);
  17:main.c        **** 
  18:main.c        **** void three_bit_counter();
  19:main.c        **** 
  20:main.c        **** int main(void)
  21:main.c        **** {
  22:main.c        ****     CyGlobalIntEnable; /* Enable global interrupts. */
  23:main.c        **** 
  24:main.c        ****     /* Place your initialization/startup code here (e.g. MyInst_Start()) */
  25:main.c        **** 
  26:main.c        ****     isr_Button_StartEx(isr_Button_RisingEdge_Interrupt);
  27:main.c        ****     
  28:main.c        ****     for(;;)
  29:main.c        ****     {
  30:main.c        ****         /* Place your application code here. */
ARM GAS  C:\Users\giris\AppData\Local\Temp\ccfd0rO4.s 			page 2


  31:main.c        ****         three_bit_counter();
  32:main.c        ****         
  33:main.c        ****     }
  34:main.c        **** }
  35:main.c        **** 
  36:main.c        **** void three_bit_counter()
  37:main.c        **** {    
  38:main.c        ****     Pin_YELLOW_LED_Write(i & 0x01);
  39:main.c        ****     Pin_RED_LED_Write((i>>1) & 0x01);
  40:main.c        ****     Pin_GREEN_LED_Write((i>>2) & 0x01);
  41:main.c        **** }
  42:main.c        **** 
  43:main.c        **** CY_ISR(isr_Button_RisingEdge_Interrupt)
  44:main.c        **** {
  28              		.loc 1 44 0
  29              		.cfi_startproc
  30              		@ args = 0, pretend = 0, frame = 0
  31              		@ frame_needed = 0, uses_anonymous_args = 0
  32 0000 08B5     		push	{r3, lr}
  33              		.cfi_def_cfa_offset 8
  34              		.cfi_offset 3, -8
  35              		.cfi_offset 14, -4
  45:main.c        ****     Pin_Button_ClearInterrupt();
  36              		.loc 1 45 0
  37 0002 FFF7FEFF 		bl	Pin_Button_ClearInterrupt
  38              	.LVL0:
  46:main.c        ****     
  47:main.c        ****     i = (i + 1) & 0x07;
  39              		.loc 1 47 0
  40 0006 034A     		ldr	r2, .L3
  41 0008 1368     		ldr	r3, [r2]
  42 000a 0133     		adds	r3, r3, #1
  43 000c 03F00703 		and	r3, r3, #7
  44 0010 1360     		str	r3, [r2]
  45 0012 08BD     		pop	{r3, pc}
  46              	.L4:
  47              		.align	2
  48              	.L3:
  49 0014 00000000 		.word	.LANCHOR0
  50              		.cfi_endproc
  51              	.LFE65:
  52              		.size	isr_Button_RisingEdge_Interrupt, .-isr_Button_RisingEdge_Interrupt
  53              		.section	.text.three_bit_counter,"ax",%progbits
  54              		.align	2
  55              		.global	three_bit_counter
  56              		.thumb
  57              		.thumb_func
  58              		.type	three_bit_counter, %function
  59              	three_bit_counter:
  60              	.LFB64:
  37:main.c        ****     Pin_YELLOW_LED_Write(i & 0x01);
  61              		.loc 1 37 0
  62              		.cfi_startproc
  63              		@ args = 0, pretend = 0, frame = 0
  64              		@ frame_needed = 0, uses_anonymous_args = 0
  65 0000 10B5     		push	{r4, lr}
  66              		.cfi_def_cfa_offset 8
ARM GAS  C:\Users\giris\AppData\Local\Temp\ccfd0rO4.s 			page 3


  67              		.cfi_offset 4, -8
  68              		.cfi_offset 14, -4
  38:main.c        ****     Pin_RED_LED_Write((i>>1) & 0x01);
  69              		.loc 1 38 0
  70 0002 084C     		ldr	r4, .L7
  71 0004 2068     		ldr	r0, [r4]
  72 0006 00F00100 		and	r0, r0, #1
  73 000a FFF7FEFF 		bl	Pin_YELLOW_LED_Write
  74              	.LVL1:
  39:main.c        ****     Pin_GREEN_LED_Write((i>>2) & 0x01);
  75              		.loc 1 39 0
  76 000e 2068     		ldr	r0, [r4]
  77 0010 C0F34000 		ubfx	r0, r0, #1, #1
  78 0014 FFF7FEFF 		bl	Pin_RED_LED_Write
  79              	.LVL2:
  40:main.c        **** }
  80              		.loc 1 40 0
  81 0018 2068     		ldr	r0, [r4]
  82 001a C0F38000 		ubfx	r0, r0, #2, #1
  83 001e FFF7FEFF 		bl	Pin_GREEN_LED_Write
  84              	.LVL3:
  85 0022 10BD     		pop	{r4, pc}
  86              	.L8:
  87              		.align	2
  88              	.L7:
  89 0024 00000000 		.word	.LANCHOR0
  90              		.cfi_endproc
  91              	.LFE64:
  92              		.size	three_bit_counter, .-three_bit_counter
  93              		.section	.text.main,"ax",%progbits
  94              		.align	2
  95              		.global	main
  96              		.thumb
  97              		.thumb_func
  98              		.type	main, %function
  99              	main:
 100              	.LFB63:
  21:main.c        ****     CyGlobalIntEnable; /* Enable global interrupts. */
 101              		.loc 1 21 0
 102              		.cfi_startproc
 103              		@ Volatile: function does not return.
 104              		@ args = 0, pretend = 0, frame = 0
 105              		@ frame_needed = 0, uses_anonymous_args = 0
 106 0000 08B5     		push	{r3, lr}
 107              		.cfi_def_cfa_offset 8
 108              		.cfi_offset 3, -8
 109              		.cfi_offset 14, -4
  22:main.c        **** 
 110              		.loc 1 22 0
 111              		.syntax unified
 112              	@ 22 "main.c" 1
 113 0002 62B6     		CPSIE   i
 114              	@ 0 "" 2
  26:main.c        ****     
 115              		.loc 1 26 0
 116              		.thumb
 117              		.syntax unified
ARM GAS  C:\Users\giris\AppData\Local\Temp\ccfd0rO4.s 			page 4


 118 0004 0248     		ldr	r0, .L12
 119 0006 FFF7FEFF 		bl	isr_Button_StartEx
 120              	.LVL4:
 121              	.L10:
  31:main.c        ****         
 122              		.loc 1 31 0 discriminator 1
 123 000a FFF7FEFF 		bl	three_bit_counter
 124              	.LVL5:
 125 000e FCE7     		b	.L10
 126              	.L13:
 127              		.align	2
 128              	.L12:
 129 0010 00000000 		.word	isr_Button_RisingEdge_Interrupt
 130              		.cfi_endproc
 131              	.LFE63:
 132              		.size	main, .-main
 133              		.global	i
 134              		.bss
 135              		.align	2
 136              		.set	.LANCHOR0,. + 0
 137              		.type	i, %object
 138              		.size	i, 4
 139              	i:
 140 0000 00000000 		.space	4
 141              		.text
 142              	.Letext0:
 143              		.file 2 "c:\\program files (x86)\\cypress\\psoc creator\\4.4\\psoc creator\\import\\gnu\\arm\\5.4.
 144              		.file 3 "c:\\program files (x86)\\cypress\\psoc creator\\4.4\\psoc creator\\import\\gnu\\arm\\5.4.
 145              		.file 4 "Generated_Source\\PSoC5/Pin_Button.h"
 146              		.file 5 "Generated_Source\\PSoC5/Pin_YELLOW_LED.h"
 147              		.file 6 "Generated_Source\\PSoC5/Pin_RED_LED.h"
 148              		.file 7 "Generated_Source\\PSoC5/Pin_GREEN_LED.h"
 149              		.file 8 "Generated_Source\\PSoC5/isr_Button.h"
 150              		.file 9 "Generated_Source\\PSoC5/core_cm3.h"