ARM GAS  C:\Users\giris\AppData\Local\Temp\ccRvy7lj.s 			page 1


   1              		.syntax unified
   2              		.cpu cortex-m3
   3              		.fpu softvfp
   4              		.eabi_attribute 20, 1
   5              		.eabi_attribute 21, 1
   6              		.eabi_attribute 23, 3
   7              		.eabi_attribute 24, 1
   8              		.eabi_attribute 25, 1
   9              		.eabi_attribute 26, 1
  10              		.eabi_attribute 30, 1
  11              		.eabi_attribute 34, 1
  12              		.eabi_attribute 18, 4
  13              		.thumb
  14              		.syntax unified
  15              		.file	"main.c"
  16              		.text
  17              	.Ltext0:
  18              		.cfi_sections	.debug_frame
  19              		.section	.text.isr_Button_RisingEdge_Interrupt,"ax",%progbits
  20              		.align	2
  21              		.global	isr_Button_RisingEdge_Interrupt
  22              		.thumb
  23              		.thumb_func
  24              		.type	isr_Button_RisingEdge_Interrupt, %function
  25              	isr_Button_RisingEdge_Interrupt:
  26              	.LFB64:
  27              		.file 1 "main.c"
   1:main.c        **** /* ========================================
   2:main.c        ****  *
   3:main.c        ****  * Copyright YOUR COMPANY, THE YEAR
   4:main.c        ****  * All Rights Reserved
   5:main.c        ****  * UNPUBLISHED, LICENSED SOFTWARE.
   6:main.c        ****  *
   7:main.c        ****  * CONFIDENTIAL AND PROPRIETARY INFORMATION
   8:main.c        ****  * WHICH IS THE PROPERTY OF your company.
   9:main.c        ****  *
  10:main.c        ****  * ========================================
  11:main.c        **** */
  12:main.c        **** #include "project.h"
  13:main.c        **** 
  14:main.c        **** volatile int toggle = 0;
  15:main.c        **** 
  16:main.c        **** CY_ISR_PROTO(isr_Button_RisingEdge_Interrupt);
  17:main.c        **** 
  18:main.c        **** int main(void)
  19:main.c        **** {
  20:main.c        ****     CyGlobalIntEnable; /* Enable global interrupts. */
  21:main.c        **** 
  22:main.c        ****     /* Place your initialization/startup code here (e.g. MyInst_Start()) */
  23:main.c        **** 
  24:main.c        ****     isr_Button_StartEx(isr_Button_RisingEdge_Interrupt);
  25:main.c        ****     
  26:main.c        ****     for(;;)
  27:main.c        ****     {
  28:main.c        ****         /* Place your application code here. */
  29:main.c        ****         if( toggle == 0)
  30:main.c        ****         {
ARM GAS  C:\Users\giris\AppData\Local\Temp\ccRvy7lj.s 			page 2


  31:main.c        ****             Pin_YELLOW_LED_Write(1);
  32:main.c        ****             Pin_GREEN_LED_Write(1);
  33:main.c        ****             Pin_RED_LED_Write(1);
  34:main.c        ****         }
  35:main.c        ****         else
  36:main.c        ****         {
  37:main.c        ****             Pin_YELLOW_LED_Write(0); 
  38:main.c        ****             Pin_GREEN_LED_Write(0);
  39:main.c        ****             Pin_RED_LED_Write(0);
  40:main.c        ****         }
  41:main.c        ****     }
  42:main.c        **** }
  43:main.c        **** 
  44:main.c        **** CY_ISR(isr_Button_RisingEdge_Interrupt)
  45:main.c        **** {
  28              		.loc 1 45 0
  29              		.cfi_startproc
  30              		@ args = 0, pretend = 0, frame = 0
  31              		@ frame_needed = 0, uses_anonymous_args = 0
  32 0000 08B5     		push	{r3, lr}
  33              		.cfi_def_cfa_offset 8
  34              		.cfi_offset 3, -8
  35              		.cfi_offset 14, -4
  46:main.c        ****     Pin_Button_ClearInterrupt();
  36              		.loc 1 46 0
  37 0002 FFF7FEFF 		bl	Pin_Button_ClearInterrupt
  38              	.LVL0:
  47:main.c        ****     
  48:main.c        ****     if( toggle == 0)
  39              		.loc 1 48 0
  40 0006 054B     		ldr	r3, .L5
  41 0008 1B68     		ldr	r3, [r3]
  42 000a 1BB9     		cbnz	r3, .L2
  49:main.c        ****         toggle = 1;
  43              		.loc 1 49 0
  44 000c 0122     		movs	r2, #1
  45 000e 034B     		ldr	r3, .L5
  46 0010 1A60     		str	r2, [r3]
  47 0012 08BD     		pop	{r3, pc}
  48              	.L2:
  50:main.c        ****     else
  51:main.c        ****         toggle = 0;
  49              		.loc 1 51 0
  50 0014 0022     		movs	r2, #0
  51 0016 014B     		ldr	r3, .L5
  52 0018 1A60     		str	r2, [r3]
  53 001a 08BD     		pop	{r3, pc}
  54              	.L6:
  55              		.align	2
  56              	.L5:
  57 001c 00000000 		.word	.LANCHOR0
  58              		.cfi_endproc
  59              	.LFE64:
  60              		.size	isr_Button_RisingEdge_Interrupt, .-isr_Button_RisingEdge_Interrupt
  61              		.section	.text.main,"ax",%progbits
  62              		.align	2
  63              		.global	main
ARM GAS  C:\Users\giris\AppData\Local\Temp\ccRvy7lj.s 			page 3


  64              		.thumb
  65              		.thumb_func
  66              		.type	main, %function
  67              	main:
  68              	.LFB63:
  19:main.c        ****     CyGlobalIntEnable; /* Enable global interrupts. */
  69              		.loc 1 19 0
  70              		.cfi_startproc
  71              		@ Volatile: function does not return.
  72              		@ args = 0, pretend = 0, frame = 0
  73              		@ frame_needed = 0, uses_anonymous_args = 0
  74 0000 08B5     		push	{r3, lr}
  75              		.cfi_def_cfa_offset 8
  76              		.cfi_offset 3, -8
  77              		.cfi_offset 14, -4
  20:main.c        **** 
  78              		.loc 1 20 0
  79              		.syntax unified
  80              	@ 20 "main.c" 1
  81 0002 62B6     		CPSIE   i
  82              	@ 0 "" 2
  24:main.c        ****     
  83              		.loc 1 24 0
  84              		.thumb
  85              		.syntax unified
  86 0004 0C48     		ldr	r0, .L12
  87 0006 FFF7FEFF 		bl	isr_Button_StartEx
  88              	.LVL1:
  89              	.L8:
  29:main.c        ****         {
  90              		.loc 1 29 0
  91 000a 0C4B     		ldr	r3, .L12+4
  92 000c 1B68     		ldr	r3, [r3]
  93 000e 4BB9     		cbnz	r3, .L9
  31:main.c        ****             Pin_GREEN_LED_Write(1);
  94              		.loc 1 31 0
  95 0010 0120     		movs	r0, #1
  96 0012 FFF7FEFF 		bl	Pin_YELLOW_LED_Write
  97              	.LVL2:
  32:main.c        ****             Pin_RED_LED_Write(1);
  98              		.loc 1 32 0
  99 0016 0120     		movs	r0, #1
 100 0018 FFF7FEFF 		bl	Pin_GREEN_LED_Write
 101              	.LVL3:
  33:main.c        ****         }
 102              		.loc 1 33 0
 103 001c 0120     		movs	r0, #1
 104 001e FFF7FEFF 		bl	Pin_RED_LED_Write
 105              	.LVL4:
 106 0022 F2E7     		b	.L8
 107              	.L9:
  37:main.c        ****             Pin_GREEN_LED_Write(0);
 108              		.loc 1 37 0
 109 0024 0020     		movs	r0, #0
 110 0026 FFF7FEFF 		bl	Pin_YELLOW_LED_Write
 111              	.LVL5:
  38:main.c        ****             Pin_RED_LED_Write(0);
ARM GAS  C:\Users\giris\AppData\Local\Temp\ccRvy7lj.s 			page 4


 112              		.loc 1 38 0
 113 002a 0020     		movs	r0, #0
 114 002c FFF7FEFF 		bl	Pin_GREEN_LED_Write
 115              	.LVL6:
  39:main.c        ****         }
 116              		.loc 1 39 0
 117 0030 0020     		movs	r0, #0
 118 0032 FFF7FEFF 		bl	Pin_RED_LED_Write
 119              	.LVL7:
 120 0036 E8E7     		b	.L8
 121              	.L13:
 122              		.align	2
 123              	.L12:
 124 0038 00000000 		.word	isr_Button_RisingEdge_Interrupt
 125 003c 00000000 		.word	.LANCHOR0
 126              		.cfi_endproc
 127              	.LFE63:
 128              		.size	main, .-main
 129              		.global	toggle
 130              		.bss
 131              		.align	2
 132              		.set	.LANCHOR0,. + 0
 133              		.type	toggle, %object
 134              		.size	toggle, 4
 135              	toggle:
 136 0000 00000000 		.space	4
 137              		.text
 138              	.Letext0:
 139              		.file 2 "c:\\program files (x86)\\cypress\\psoc creator\\4.4\\psoc creator\\import\\gnu\\arm\\5.4.
 140              		.file 3 "c:\\program files (x86)\\cypress\\psoc creator\\4.4\\psoc creator\\import\\gnu\\arm\\5.4.
 141              		.file 4 "Generated_Source\\PSoC5/core_cm3.h"
 142              		.file 5 "Generated_Source\\PSoC5/Pin_Button.h"
 143              		.file 6 "Generated_Source\\PSoC5/isr_Button.h"
 144              		.file 7 "Generated_Source\\PSoC5/Pin_YELLOW_LED.h"
 145              		.file 8 "Generated_Source\\PSoC5/Pin_GREEN_LED.h"
 146              		.file 9 "Generated_Source\\PSoC5/Pin_RED_LED.h"